
00boilerplate.out:     file format elf64-x86-64


Disassembly of section .init:

0000000000001000 <_init>:
    1000:	f3 0f 1e fa          	endbr64 
    1004:	48 83 ec 08          	sub    $0x8,%rsp
    1008:	48 8b 05 d9 5f 00 00 	mov    0x5fd9(%rip),%rax        # 6fe8 <__gmon_start__@Base>
    100f:	48 85 c0             	test   %rax,%rax
    1012:	74 02                	je     1016 <_init+0x16>
    1014:	ff d0                	call   *%rax
    1016:	48 83 c4 08          	add    $0x8,%rsp
    101a:	c3                   	ret    

Disassembly of section .plt:

0000000000001020 <.plt>:
    1020:	ff 35 0a 5f 00 00    	push   0x5f0a(%rip)        # 6f30 <_GLOBAL_OFFSET_TABLE_+0x8>
    1026:	f2 ff 25 0b 5f 00 00 	bnd jmp *0x5f0b(%rip)        # 6f38 <_GLOBAL_OFFSET_TABLE_+0x10>
    102d:	0f 1f 00             	nopl   (%rax)
    1030:	f3 0f 1e fa          	endbr64 
    1034:	68 00 00 00 00       	push   $0x0
    1039:	f2 e9 e1 ff ff ff    	bnd jmp 1020 <_init+0x20>
    103f:	90                   	nop
    1040:	f3 0f 1e fa          	endbr64 
    1044:	68 01 00 00 00       	push   $0x1
    1049:	f2 e9 d1 ff ff ff    	bnd jmp 1020 <_init+0x20>
    104f:	90                   	nop
    1050:	f3 0f 1e fa          	endbr64 
    1054:	68 02 00 00 00       	push   $0x2
    1059:	f2 e9 c1 ff ff ff    	bnd jmp 1020 <_init+0x20>
    105f:	90                   	nop
    1060:	f3 0f 1e fa          	endbr64 
    1064:	68 03 00 00 00       	push   $0x3
    1069:	f2 e9 b1 ff ff ff    	bnd jmp 1020 <_init+0x20>
    106f:	90                   	nop
    1070:	f3 0f 1e fa          	endbr64 
    1074:	68 04 00 00 00       	push   $0x4
    1079:	f2 e9 a1 ff ff ff    	bnd jmp 1020 <_init+0x20>
    107f:	90                   	nop
    1080:	f3 0f 1e fa          	endbr64 
    1084:	68 05 00 00 00       	push   $0x5
    1089:	f2 e9 91 ff ff ff    	bnd jmp 1020 <_init+0x20>
    108f:	90                   	nop
    1090:	f3 0f 1e fa          	endbr64 
    1094:	68 06 00 00 00       	push   $0x6
    1099:	f2 e9 81 ff ff ff    	bnd jmp 1020 <_init+0x20>
    109f:	90                   	nop
    10a0:	f3 0f 1e fa          	endbr64 
    10a4:	68 07 00 00 00       	push   $0x7
    10a9:	f2 e9 71 ff ff ff    	bnd jmp 1020 <_init+0x20>
    10af:	90                   	nop
    10b0:	f3 0f 1e fa          	endbr64 
    10b4:	68 08 00 00 00       	push   $0x8
    10b9:	f2 e9 61 ff ff ff    	bnd jmp 1020 <_init+0x20>
    10bf:	90                   	nop
    10c0:	f3 0f 1e fa          	endbr64 
    10c4:	68 09 00 00 00       	push   $0x9
    10c9:	f2 e9 51 ff ff ff    	bnd jmp 1020 <_init+0x20>
    10cf:	90                   	nop
    10d0:	f3 0f 1e fa          	endbr64 
    10d4:	68 0a 00 00 00       	push   $0xa
    10d9:	f2 e9 41 ff ff ff    	bnd jmp 1020 <_init+0x20>
    10df:	90                   	nop
    10e0:	f3 0f 1e fa          	endbr64 
    10e4:	68 0b 00 00 00       	push   $0xb
    10e9:	f2 e9 31 ff ff ff    	bnd jmp 1020 <_init+0x20>
    10ef:	90                   	nop
    10f0:	f3 0f 1e fa          	endbr64 
    10f4:	68 0c 00 00 00       	push   $0xc
    10f9:	f2 e9 21 ff ff ff    	bnd jmp 1020 <_init+0x20>
    10ff:	90                   	nop
    1100:	f3 0f 1e fa          	endbr64 
    1104:	68 0d 00 00 00       	push   $0xd
    1109:	f2 e9 11 ff ff ff    	bnd jmp 1020 <_init+0x20>
    110f:	90                   	nop
    1110:	f3 0f 1e fa          	endbr64 
    1114:	68 0e 00 00 00       	push   $0xe
    1119:	f2 e9 01 ff ff ff    	bnd jmp 1020 <_init+0x20>
    111f:	90                   	nop
    1120:	f3 0f 1e fa          	endbr64 
    1124:	68 0f 00 00 00       	push   $0xf
    1129:	f2 e9 f1 fe ff ff    	bnd jmp 1020 <_init+0x20>
    112f:	90                   	nop
    1130:	f3 0f 1e fa          	endbr64 
    1134:	68 10 00 00 00       	push   $0x10
    1139:	f2 e9 e1 fe ff ff    	bnd jmp 1020 <_init+0x20>
    113f:	90                   	nop
    1140:	f3 0f 1e fa          	endbr64 
    1144:	68 11 00 00 00       	push   $0x11
    1149:	f2 e9 d1 fe ff ff    	bnd jmp 1020 <_init+0x20>
    114f:	90                   	nop

Disassembly of section .plt.got:

0000000000001150 <__cxa_finalize@plt>:
    1150:	f3 0f 1e fa          	endbr64 
    1154:	f2 ff 25 75 5e 00 00 	bnd jmp *0x5e75(%rip)        # 6fd0 <__cxa_finalize@GLIBC_2.2.5>
    115b:	0f 1f 44 00 00       	nopl   0x0(%rax,%rax,1)

Disassembly of section .plt.sec:

0000000000001160 <_ZSt29_Rb_tree_insert_and_rebalancebPSt18_Rb_tree_node_baseS0_RS_@plt>:
    1160:	f3 0f 1e fa          	endbr64 
    1164:	f2 ff 25 d5 5d 00 00 	bnd jmp *0x5dd5(%rip)        # 6f40 <_ZSt29_Rb_tree_insert_and_rebalancebPSt18_Rb_tree_node_baseS0_RS_@GLIBCXX_3.4>
    116b:	0f 1f 44 00 00       	nopl   0x0(%rax,%rax,1)

0000000000001170 <_ZSt17__throw_bad_allocv@plt>:
    1170:	f3 0f 1e fa          	endbr64 
    1174:	f2 ff 25 cd 5d 00 00 	bnd jmp *0x5dcd(%rip)        # 6f48 <_ZSt17__throw_bad_allocv@GLIBCXX_3.4>
    117b:	0f 1f 44 00 00       	nopl   0x0(%rax,%rax,1)

0000000000001180 <_ZNSt8ios_base15sync_with_stdioEb@plt>:
    1180:	f3 0f 1e fa          	endbr64 
    1184:	f2 ff 25 c5 5d 00 00 	bnd jmp *0x5dc5(%rip)        # 6f50 <_ZNSt8ios_base15sync_with_stdioEb@GLIBCXX_3.4>
    118b:	0f 1f 44 00 00       	nopl   0x0(%rax,%rax,1)

0000000000001190 <_ZSt20__throw_length_errorPKc@plt>:
    1190:	f3 0f 1e fa          	endbr64 
    1194:	f2 ff 25 bd 5d 00 00 	bnd jmp *0x5dbd(%rip)        # 6f58 <_ZSt20__throw_length_errorPKc@GLIBCXX_3.4>
    119b:	0f 1f 44 00 00       	nopl   0x0(%rax,%rax,1)

00000000000011a0 <_ZNSirsERi@plt>:
    11a0:	f3 0f 1e fa          	endbr64 
    11a4:	f2 ff 25 b5 5d 00 00 	bnd jmp *0x5db5(%rip)        # 6f60 <_ZNSirsERi@GLIBCXX_3.4>
    11ab:	0f 1f 44 00 00       	nopl   0x0(%rax,%rax,1)

00000000000011b0 <_ZNSt9basic_iosIcSt11char_traitsIcEE3tieEPSo@plt>:
    11b0:	f3 0f 1e fa          	endbr64 
    11b4:	f2 ff 25 ad 5d 00 00 	bnd jmp *0x5dad(%rip)        # 6f68 <_ZNSt9basic_iosIcSt11char_traitsIcEE3tieEPSo@GLIBCXX_3.4>
    11bb:	0f 1f 44 00 00       	nopl   0x0(%rax,%rax,1)

00000000000011c0 <_ZSt28__throw_bad_array_new_lengthv@plt>:
    11c0:	f3 0f 1e fa          	endbr64 
    11c4:	f2 ff 25 a5 5d 00 00 	bnd jmp *0x5da5(%rip)        # 6f70 <_ZSt28__throw_bad_array_new_lengthv@GLIBCXX_3.4.29>
    11cb:	0f 1f 44 00 00       	nopl   0x0(%rax,%rax,1)

00000000000011d0 <__cxa_atexit@plt>:
    11d0:	f3 0f 1e fa          	endbr64 
    11d4:	f2 ff 25 9d 5d 00 00 	bnd jmp *0x5d9d(%rip)        # 6f78 <__cxa_atexit@GLIBC_2.2.5>
    11db:	0f 1f 44 00 00       	nopl   0x0(%rax,%rax,1)

00000000000011e0 <_ZStlsISt11char_traitsIcEERSt13basic_ostreamIcT_ES5_PKc@plt>:
    11e0:	f3 0f 1e fa          	endbr64 
    11e4:	f2 ff 25 95 5d 00 00 	bnd jmp *0x5d95(%rip)        # 6f80 <_ZStlsISt11char_traitsIcEERSt13basic_ostreamIcT_ES5_PKc@GLIBCXX_3.4>
    11eb:	0f 1f 44 00 00       	nopl   0x0(%rax,%rax,1)

00000000000011f0 <_Znwm@plt>:
    11f0:	f3 0f 1e fa          	endbr64 
    11f4:	f2 ff 25 8d 5d 00 00 	bnd jmp *0x5d8d(%rip)        # 6f88 <_Znwm@GLIBCXX_3.4>
    11fb:	0f 1f 44 00 00       	nopl   0x0(%rax,%rax,1)

0000000000001200 <_ZdlPvm@plt>:
    1200:	f3 0f 1e fa          	endbr64 
    1204:	f2 ff 25 85 5d 00 00 	bnd jmp *0x5d85(%rip)        # 6f90 <_ZdlPvm@CXXABI_1.3.9>
    120b:	0f 1f 44 00 00       	nopl   0x0(%rax,%rax,1)

0000000000001210 <_ZSt18_Rb_tree_decrementPSt18_Rb_tree_node_base@plt>:
    1210:	f3 0f 1e fa          	endbr64 
    1214:	f2 ff 25 7d 5d 00 00 	bnd jmp *0x5d7d(%rip)        # 6f98 <_ZSt18_Rb_tree_decrementPSt18_Rb_tree_node_base@GLIBCXX_3.4>
    121b:	0f 1f 44 00 00       	nopl   0x0(%rax,%rax,1)

0000000000001220 <__stack_chk_fail@plt>:
    1220:	f3 0f 1e fa          	endbr64 
    1224:	f2 ff 25 75 5d 00 00 	bnd jmp *0x5d75(%rip)        # 6fa0 <__stack_chk_fail@GLIBC_2.4>
    122b:	0f 1f 44 00 00       	nopl   0x0(%rax,%rax,1)

0000000000001230 <_ZSt18_Rb_tree_incrementPKSt18_Rb_tree_node_base@plt>:
    1230:	f3 0f 1e fa          	endbr64 
    1234:	f2 ff 25 6d 5d 00 00 	bnd jmp *0x5d6d(%rip)        # 6fa8 <_ZSt18_Rb_tree_incrementPKSt18_Rb_tree_node_base@GLIBCXX_3.4>
    123b:	0f 1f 44 00 00       	nopl   0x0(%rax,%rax,1)

0000000000001240 <_ZNSt8ios_base4InitC1Ev@plt>:
    1240:	f3 0f 1e fa          	endbr64 
    1244:	f2 ff 25 65 5d 00 00 	bnd jmp *0x5d65(%rip)        # 6fb0 <_ZNSt8ios_base4InitC1Ev@GLIBCXX_3.4>
    124b:	0f 1f 44 00 00       	nopl   0x0(%rax,%rax,1)

0000000000001250 <memmove@plt>:
    1250:	f3 0f 1e fa          	endbr64 
    1254:	f2 ff 25 5d 5d 00 00 	bnd jmp *0x5d5d(%rip)        # 6fb8 <memmove@GLIBC_2.2.5>
    125b:	0f 1f 44 00 00       	nopl   0x0(%rax,%rax,1)

0000000000001260 <_ZNSolsEi@plt>:
    1260:	f3 0f 1e fa          	endbr64 
    1264:	f2 ff 25 55 5d 00 00 	bnd jmp *0x5d55(%rip)        # 6fc0 <_ZNSolsEi@GLIBCXX_3.4>
    126b:	0f 1f 44 00 00       	nopl   0x0(%rax,%rax,1)

0000000000001270 <_Unwind_Resume@plt>:
    1270:	f3 0f 1e fa          	endbr64 
    1274:	f2 ff 25 4d 5d 00 00 	bnd jmp *0x5d4d(%rip)        # 6fc8 <_Unwind_Resume@GCC_3.0>
    127b:	0f 1f 44 00 00       	nopl   0x0(%rax,%rax,1)

Disassembly of section .text:

0000000000001280 <_start>:
    1280:	f3 0f 1e fa          	endbr64 
    1284:	31 ed                	xor    %ebp,%ebp
    1286:	49 89 d1             	mov    %rdx,%r9
    1289:	5e                   	pop    %rsi
    128a:	48 89 e2             	mov    %rsp,%rdx
    128d:	48 83 e4 f0          	and    $0xfffffffffffffff0,%rsp
    1291:	50                   	push   %rax
    1292:	54                   	push   %rsp
    1293:	45 31 c0             	xor    %r8d,%r8d
    1296:	31 c9                	xor    %ecx,%ecx
    1298:	48 8d 3d ca 00 00 00 	lea    0xca(%rip),%rdi        # 1369 <main>
    129f:	ff 15 33 5d 00 00    	call   *0x5d33(%rip)        # 6fd8 <__libc_start_main@GLIBC_2.34>
    12a5:	f4                   	hlt    
    12a6:	66 2e 0f 1f 84 00 00 	cs nopw 0x0(%rax,%rax,1)
    12ad:	00 00 00 

00000000000012b0 <deregister_tm_clones>:
    12b0:	48 8d 3d 61 5d 00 00 	lea    0x5d61(%rip),%rdi        # 7018 <__TMC_END__>
    12b7:	48 8d 05 5a 5d 00 00 	lea    0x5d5a(%rip),%rax        # 7018 <__TMC_END__>
    12be:	48 39 f8             	cmp    %rdi,%rax
    12c1:	74 15                	je     12d8 <deregister_tm_clones+0x28>
    12c3:	48 8b 05 16 5d 00 00 	mov    0x5d16(%rip),%rax        # 6fe0 <_ITM_deregisterTMCloneTable@Base>
    12ca:	48 85 c0             	test   %rax,%rax
    12cd:	74 09                	je     12d8 <deregister_tm_clones+0x28>
    12cf:	ff e0                	jmp    *%rax
    12d1:	0f 1f 80 00 00 00 00 	nopl   0x0(%rax)
    12d8:	c3                   	ret    
    12d9:	0f 1f 80 00 00 00 00 	nopl   0x0(%rax)

00000000000012e0 <register_tm_clones>:
    12e0:	48 8d 3d 31 5d 00 00 	lea    0x5d31(%rip),%rdi        # 7018 <__TMC_END__>
    12e7:	48 8d 35 2a 5d 00 00 	lea    0x5d2a(%rip),%rsi        # 7018 <__TMC_END__>
    12ee:	48 29 fe             	sub    %rdi,%rsi
    12f1:	48 89 f0             	mov    %rsi,%rax
    12f4:	48 c1 ee 3f          	shr    $0x3f,%rsi
    12f8:	48 c1 f8 03          	sar    $0x3,%rax
    12fc:	48 01 c6             	add    %rax,%rsi
    12ff:	48 d1 fe             	sar    %rsi
    1302:	74 14                	je     1318 <register_tm_clones+0x38>
    1304:	48 8b 05 e5 5c 00 00 	mov    0x5ce5(%rip),%rax        # 6ff0 <_ITM_registerTMCloneTable@Base>
    130b:	48 85 c0             	test   %rax,%rax
    130e:	74 08                	je     1318 <register_tm_clones+0x38>
    1310:	ff e0                	jmp    *%rax
    1312:	66 0f 1f 44 00 00    	nopw   0x0(%rax,%rax,1)
    1318:	c3                   	ret    
    1319:	0f 1f 80 00 00 00 00 	nopl   0x0(%rax)

0000000000001320 <__do_global_dtors_aux>:
    1320:	f3 0f 1e fa          	endbr64 
    1324:	80 3d 4d 5f 00 00 00 	cmpb   $0x0,0x5f4d(%rip)        # 7278 <completed.0>
    132b:	75 2b                	jne    1358 <__do_global_dtors_aux+0x38>
    132d:	55                   	push   %rbp
    132e:	48 83 3d 9a 5c 00 00 	cmpq   $0x0,0x5c9a(%rip)        # 6fd0 <__cxa_finalize@GLIBC_2.2.5>
    1335:	00 
    1336:	48 89 e5             	mov    %rsp,%rbp
    1339:	74 0c                	je     1347 <__do_global_dtors_aux+0x27>
    133b:	48 8b 3d c6 5c 00 00 	mov    0x5cc6(%rip),%rdi        # 7008 <__dso_handle>
    1342:	e8 09 fe ff ff       	call   1150 <__cxa_finalize@plt>
    1347:	e8 64 ff ff ff       	call   12b0 <deregister_tm_clones>
    134c:	c6 05 25 5f 00 00 01 	movb   $0x1,0x5f25(%rip)        # 7278 <completed.0>
    1353:	5d                   	pop    %rbp
    1354:	c3                   	ret    
    1355:	0f 1f 00             	nopl   (%rax)
    1358:	c3                   	ret    
    1359:	0f 1f 80 00 00 00 00 	nopl   0x0(%rax)

0000000000001360 <frame_dummy>:
    1360:	f3 0f 1e fa          	endbr64 
    1364:	e9 77 ff ff ff       	jmp    12e0 <register_tm_clones>

0000000000001369 <main>:
    1369:	f3 0f 1e fa          	endbr64 
    136d:	55                   	push   %rbp
    136e:	48 89 e5             	mov    %rsp,%rbp
    1371:	53                   	push   %rbx
    1372:	48 81 ec f8 00 00 00 	sub    $0xf8,%rsp
    1379:	64 48 8b 04 25 28 00 	mov    %fs:0x28,%rax
    1380:	00 00 
    1382:	48 89 45 e8          	mov    %rax,-0x18(%rbp)
    1386:	31 c0                	xor    %eax,%eax
    1388:	bf 00 00 00 00       	mov    $0x0,%edi
    138d:	e8 ee fd ff ff       	call   1180 <_ZNSt8ios_base15sync_with_stdioEb@plt>
    1392:	be 00 00 00 00       	mov    $0x0,%esi
    1397:	48 8d 05 d2 5d 00 00 	lea    0x5dd2(%rip),%rax        # 7170 <_ZSt3cin@GLIBCXX_3.4+0x10>
    139e:	48 89 c7             	mov    %rax,%rdi
    13a1:	e8 0a fe ff ff       	call   11b0 <_ZNSt9basic_iosIcSt11char_traitsIcEE3tieEPSo@plt>
    13a6:	be 00 00 00 00       	mov    $0x0,%esi
    13ab:	48 8d 05 96 5c 00 00 	lea    0x5c96(%rip),%rax        # 7048 <_ZSt4cout@GLIBCXX_3.4+0x8>
    13b2:	48 89 c7             	mov    %rax,%rdi
    13b5:	e8 f6 fd ff ff       	call   11b0 <_ZNSt9basic_iosIcSt11char_traitsIcEE3tieEPSo@plt>
    13ba:	48 8d 85 08 ff ff ff 	lea    -0xf8(%rbp),%rax
    13c1:	48 89 c6             	mov    %rax,%rsi
    13c4:	48 8d 05 95 5d 00 00 	lea    0x5d95(%rip),%rax        # 7160 <_ZSt3cin@GLIBCXX_3.4>
    13cb:	48 89 c7             	mov    %rax,%rdi
    13ce:	e8 cd fd ff ff       	call   11a0 <_ZNSirsERi@plt>
    13d3:	48 89 c2             	mov    %rax,%rdx
    13d6:	48 8d 85 0c ff ff ff 	lea    -0xf4(%rbp),%rax
    13dd:	48 89 c6             	mov    %rax,%rsi
    13e0:	48 89 d7             	mov    %rdx,%rdi
    13e3:	e8 b8 fd ff ff       	call   11a0 <_ZNSirsERi@plt>
    13e8:	8b 85 08 ff ff ff    	mov    -0xf8(%rbp),%eax
    13ee:	89 85 14 ff ff ff    	mov    %eax,-0xec(%rbp)
    13f4:	8b 85 0c ff ff ff    	mov    -0xf4(%rbp),%eax
    13fa:	89 85 18 ff ff ff    	mov    %eax,-0xe8(%rbp)
    1400:	48 8d 85 40 ff ff ff 	lea    -0xc0(%rbp),%rax
    1407:	48 89 c7             	mov    %rax,%rdi
    140a:	e8 b5 04 00 00       	call   18c4 <_ZNSt6vectorIiSaIiEEC1Ev>
    140f:	48 8d 85 60 ff ff ff 	lea    -0xa0(%rbp),%rax
    1416:	48 89 c7             	mov    %rax,%rdi
    1419:	e8 a6 04 00 00       	call   18c4 <_ZNSt6vectorIiSaIiEEC1Ev>
    141e:	eb 2c                	jmp    144c <main+0xe3>
    1420:	48 8d 45 b0          	lea    -0x50(%rbp),%rax
    1424:	48 89 c6             	mov    %rax,%rsi
    1427:	48 8d 05 32 5d 00 00 	lea    0x5d32(%rip),%rax        # 7160 <_ZSt3cin@GLIBCXX_3.4>
    142e:	48 89 c7             	mov    %rax,%rdi
    1431:	e8 6a fd ff ff       	call   11a0 <_ZNSirsERi@plt>
    1436:	48 8d 55 b0          	lea    -0x50(%rbp),%rdx
    143a:	48 8d 85 40 ff ff ff 	lea    -0xc0(%rbp),%rax
    1441:	48 89 d6             	mov    %rdx,%rsi
    1444:	48 89 c7             	mov    %rax,%rdi
    1447:	e8 2c 06 00 00       	call   1a78 <_ZNSt6vectorIiSaIiEE9push_backERKi>
    144c:	8b 85 08 ff ff ff    	mov    -0xf8(%rbp),%eax
    1452:	8d 50 ff             	lea    -0x1(%rax),%edx
    1455:	89 95 08 ff ff ff    	mov    %edx,-0xf8(%rbp)
    145b:	85 c0                	test   %eax,%eax
    145d:	0f 95 c0             	setne  %al
    1460:	84 c0                	test   %al,%al
    1462:	75 bc                	jne    1420 <main+0xb7>
    1464:	eb 2c                	jmp    1492 <main+0x129>
    1466:	48 8d 45 b0          	lea    -0x50(%rbp),%rax
    146a:	48 89 c6             	mov    %rax,%rsi
    146d:	48 8d 05 ec 5c 00 00 	lea    0x5cec(%rip),%rax        # 7160 <_ZSt3cin@GLIBCXX_3.4>
    1474:	48 89 c7             	mov    %rax,%rdi
    1477:	e8 24 fd ff ff       	call   11a0 <_ZNSirsERi@plt>
    147c:	48 8d 55 b0          	lea    -0x50(%rbp),%rdx
    1480:	48 8d 85 60 ff ff ff 	lea    -0xa0(%rbp),%rax
    1487:	48 89 d6             	mov    %rdx,%rsi
    148a:	48 89 c7             	mov    %rax,%rdi
    148d:	e8 e6 05 00 00       	call   1a78 <_ZNSt6vectorIiSaIiEE9push_backERKi>
    1492:	8b 85 0c ff ff ff    	mov    -0xf4(%rbp),%eax
    1498:	8d 50 ff             	lea    -0x1(%rax),%edx
    149b:	89 95 0c ff ff ff    	mov    %edx,-0xf4(%rbp)
    14a1:	85 c0                	test   %eax,%eax
    14a3:	0f 95 c0             	setne  %al
    14a6:	84 c0                	test   %al,%al
    14a8:	75 bc                	jne    1466 <main+0xfd>
    14aa:	48 8d 45 80          	lea    -0x80(%rbp),%rax
    14ae:	48 89 c7             	mov    %rax,%rdi
    14b1:	e8 6e 04 00 00       	call   1924 <_ZNSt3setIiSt4lessIiESaIiEEC1Ev>
    14b6:	48 8d 85 40 ff ff ff 	lea    -0xc0(%rbp),%rax
    14bd:	48 89 85 30 ff ff ff 	mov    %rax,-0xd0(%rbp)
    14c4:	48 8b 85 30 ff ff ff 	mov    -0xd0(%rbp),%rax
    14cb:	48 89 c7             	mov    %rax,%rdi
    14ce:	e8 bf 06 00 00       	call   1b92 <_ZNSt6vectorIiSaIiEE5beginEv>
    14d3:	48 89 85 28 ff ff ff 	mov    %rax,-0xd8(%rbp)
    14da:	48 8b 85 30 ff ff ff 	mov    -0xd0(%rbp),%rax
    14e1:	48 89 c7             	mov    %rax,%rdi
    14e4:	e8 f5 06 00 00       	call   1bde <_ZNSt6vectorIiSaIiEE3endEv>
    14e9:	48 89 45 b0          	mov    %rax,-0x50(%rbp)
    14ed:	eb 3c                	jmp    152b <main+0x1c2>
    14ef:	48 8d 85 28 ff ff ff 	lea    -0xd8(%rbp),%rax
    14f6:	48 89 c7             	mov    %rax,%rdi
    14f9:	e8 94 07 00 00       	call   1c92 <_ZNK9__gnu_cxx17__normal_iteratorIPiSt6vectorIiSaIiEEEdeEv>
    14fe:	8b 00                	mov    (%rax),%eax
    1500:	89 85 20 ff ff ff    	mov    %eax,-0xe0(%rbp)
    1506:	48 8d 95 20 ff ff ff 	lea    -0xe0(%rbp),%rdx
    150d:	48 8d 45 80          	lea    -0x80(%rbp),%rax
    1511:	48 89 d6             	mov    %rdx,%rsi
    1514:	48 89 c7             	mov    %rax,%rdi
    1517:	e8 8c 07 00 00       	call   1ca8 <_ZNSt3setIiSt4lessIiESaIiEE6insertERKi>
    151c:	48 8d 85 28 ff ff ff 	lea    -0xd8(%rbp),%rax
    1523:	48 89 c7             	mov    %rax,%rdi
    1526:	e8 43 07 00 00       	call   1c6e <_ZN9__gnu_cxx17__normal_iteratorIPiSt6vectorIiSaIiEEEppEv>
    152b:	48 8d 55 b0          	lea    -0x50(%rbp),%rdx
    152f:	48 8d 85 28 ff ff ff 	lea    -0xd8(%rbp),%rax
    1536:	48 89 d6             	mov    %rdx,%rsi
    1539:	48 89 c7             	mov    %rax,%rdi
    153c:	e8 ed 06 00 00       	call   1c2e <_ZN9__gnu_cxxneIPiSt6vectorIiSaIiEEEEbRKNS_17__normal_iteratorIT_T0_EESA_>
    1541:	84 c0                	test   %al,%al
    1543:	75 aa                	jne    14ef <main+0x186>
    1545:	48 8d 45 b0          	lea    -0x50(%rbp),%rax
    1549:	48 89 c7             	mov    %rax,%rdi
    154c:	e8 d3 03 00 00       	call   1924 <_ZNSt3setIiSt4lessIiESaIiEEC1Ev>
    1551:	c7 85 10 ff ff ff 00 	movl   $0x0,-0xf0(%rbp)
    1558:	00 00 00 
    155b:	e9 98 00 00 00       	jmp    15f8 <main+0x28f>
    1560:	48 8d 45 80          	lea    -0x80(%rbp),%rax
    1564:	48 89 c7             	mov    %rax,%rdi
    1567:	e8 40 08 00 00       	call   1dac <_ZNKSt3setIiSt4lessIiESaIiEE3endEv>
    156c:	48 89 85 28 ff ff ff 	mov    %rax,-0xd8(%rbp)
    1573:	8b 85 10 ff ff ff    	mov    -0xf0(%rbp),%eax
    1579:	48 63 d0             	movslq %eax,%rdx
    157c:	48 8d 85 60 ff ff ff 	lea    -0xa0(%rbp),%rax
    1583:	48 89 d6             	mov    %rdx,%rsi
    1586:	48 89 c7             	mov    %rax,%rdi
    1589:	e8 92 07 00 00       	call   1d20 <_ZNSt6vectorIiSaIiEEixEm>
    158e:	48 89 c2             	mov    %rax,%rdx
    1591:	48 8d 45 80          	lea    -0x80(%rbp),%rax
    1595:	48 89 d6             	mov    %rdx,%rsi
    1598:	48 89 c7             	mov    %rax,%rdi
    159b:	e8 a4 07 00 00       	call   1d44 <_ZNSt3setIiSt4lessIiESaIiEE4findERKi>
    15a0:	48 89 85 20 ff ff ff 	mov    %rax,-0xe0(%rbp)
    15a7:	48 8d 95 28 ff ff ff 	lea    -0xd8(%rbp),%rdx
    15ae:	48 8d 85 20 ff ff ff 	lea    -0xe0(%rbp),%rax
    15b5:	48 89 d6             	mov    %rdx,%rsi
    15b8:	48 89 c7             	mov    %rax,%rdi
    15bb:	e8 0a 08 00 00       	call   1dca <_ZStneRKSt23_Rb_tree_const_iteratorIiES2_>
    15c0:	84 c0                	test   %al,%al
    15c2:	74 2d                	je     15f1 <main+0x288>
    15c4:	8b 85 10 ff ff ff    	mov    -0xf0(%rbp),%eax
    15ca:	48 63 d0             	movslq %eax,%rdx
    15cd:	48 8d 85 60 ff ff ff 	lea    -0xa0(%rbp),%rax
    15d4:	48 89 d6             	mov    %rdx,%rsi
    15d7:	48 89 c7             	mov    %rax,%rdi
    15da:	e8 41 07 00 00       	call   1d20 <_ZNSt6vectorIiSaIiEEixEm>
    15df:	48 89 c2             	mov    %rax,%rdx
    15e2:	48 8d 45 b0          	lea    -0x50(%rbp),%rax
    15e6:	48 89 d6             	mov    %rdx,%rsi
    15e9:	48 89 c7             	mov    %rax,%rdi
    15ec:	e8 b7 06 00 00       	call   1ca8 <_ZNSt3setIiSt4lessIiESaIiEE6insertERKi>
    15f1:	83 85 10 ff ff ff 01 	addl   $0x1,-0xf0(%rbp)
    15f8:	8b 85 10 ff ff ff    	mov    -0xf0(%rbp),%eax
    15fe:	3b 85 18 ff ff ff    	cmp    -0xe8(%rbp),%eax
    1604:	0f 8c 56 ff ff ff    	jl     1560 <main+0x1f7>
    160a:	48 8d 45 b0          	lea    -0x50(%rbp),%rax
    160e:	48 89 85 38 ff ff ff 	mov    %rax,-0xc8(%rbp)
    1615:	48 8b 85 38 ff ff ff 	mov    -0xc8(%rbp),%rax
    161c:	48 89 c7             	mov    %rax,%rdi
    161f:	e8 cc 07 00 00       	call   1df0 <_ZNKSt3setIiSt4lessIiESaIiEE5beginEv>
    1624:	48 89 85 20 ff ff ff 	mov    %rax,-0xe0(%rbp)
    162b:	48 8b 85 38 ff ff ff 	mov    -0xc8(%rbp),%rax
    1632:	48 89 c7             	mov    %rax,%rdi
    1635:	e8 72 07 00 00       	call   1dac <_ZNKSt3setIiSt4lessIiESaIiEE3endEv>
    163a:	48 89 85 28 ff ff ff 	mov    %rax,-0xd8(%rbp)
    1641:	eb 52                	jmp    1695 <main+0x32c>
    1643:	48 8d 85 20 ff ff ff 	lea    -0xe0(%rbp),%rax
    164a:	48 89 c7             	mov    %rax,%rdi
    164d:	e8 e8 07 00 00       	call   1e3a <_ZNKSt23_Rb_tree_const_iteratorIiEdeEv>
    1652:	8b 00                	mov    (%rax),%eax
    1654:	89 85 1c ff ff ff    	mov    %eax,-0xe4(%rbp)
    165a:	8b 85 1c ff ff ff    	mov    -0xe4(%rbp),%eax
    1660:	89 c6                	mov    %eax,%esi
    1662:	48 8d 05 d7 59 00 00 	lea    0x59d7(%rip),%rax        # 7040 <_ZSt4cout@GLIBCXX_3.4>
    1669:	48 89 c7             	mov    %rax,%rdi
    166c:	e8 ef fb ff ff       	call   1260 <_ZNSolsEi@plt>
    1671:	48 89 c2             	mov    %rax,%rdx
    1674:	48 8d 05 d5 29 00 00 	lea    0x29d5(%rip),%rax        # 4050 <_ZNSt8__detailL19_S_invalid_state_idE+0x8>
    167b:	48 89 c6             	mov    %rax,%rsi
    167e:	48 89 d7             	mov    %rdx,%rdi
    1681:	e8 5a fb ff ff       	call   11e0 <_ZStlsISt11char_traitsIcEERSt13basic_ostreamIcT_ES5_PKc@plt>
    1686:	48 8d 85 20 ff ff ff 	lea    -0xe0(%rbp),%rax
    168d:	48 89 c7             	mov    %rax,%rdi
    1690:	e8 79 07 00 00       	call   1e0e <_ZNSt23_Rb_tree_const_iteratorIiEppEv>
    1695:	48 8d 95 28 ff ff ff 	lea    -0xd8(%rbp),%rdx
    169c:	48 8d 85 20 ff ff ff 	lea    -0xe0(%rbp),%rax
    16a3:	48 89 d6             	mov    %rdx,%rsi
    16a6:	48 89 c7             	mov    %rax,%rdi
    16a9:	e8 1c 07 00 00       	call   1dca <_ZStneRKSt23_Rb_tree_const_iteratorIiES2_>
    16ae:	84 c0                	test   %al,%al
    16b0:	75 91                	jne    1643 <main+0x2da>
    16b2:	bb 00 00 00 00       	mov    $0x0,%ebx
    16b7:	48 8d 45 b0          	lea    -0x50(%rbp),%rax
    16bb:	48 89 c7             	mov    %rax,%rdi
    16be:	e8 81 02 00 00       	call   1944 <_ZNSt3setIiSt4lessIiESaIiEED1Ev>
    16c3:	48 8d 45 80          	lea    -0x80(%rbp),%rax
    16c7:	48 89 c7             	mov    %rax,%rdi
    16ca:	e8 75 02 00 00       	call   1944 <_ZNSt3setIiSt4lessIiESaIiEED1Ev>
    16cf:	48 8d 85 60 ff ff ff 	lea    -0xa0(%rbp),%rax
    16d6:	48 89 c7             	mov    %rax,%rdi
    16d9:	e8 52 03 00 00       	call   1a30 <_ZNSt6vectorIiSaIiEED1Ev>
    16de:	48 8d 85 40 ff ff ff 	lea    -0xc0(%rbp),%rax
    16e5:	48 89 c7             	mov    %rax,%rdi
    16e8:	e8 43 03 00 00       	call   1a30 <_ZNSt6vectorIiSaIiEED1Ev>
    16ed:	89 d8                	mov    %ebx,%eax
    16ef:	48 8b 55 e8          	mov    -0x18(%rbp),%rdx
    16f3:	64 48 2b 14 25 28 00 	sub    %fs:0x28,%rdx
    16fa:	00 00 
    16fc:	74 61                	je     175f <main+0x3f6>
    16fe:	eb 5a                	jmp    175a <main+0x3f1>
    1700:	f3 0f 1e fa          	endbr64 
    1704:	48 89 c3             	mov    %rax,%rbx
    1707:	48 8d 45 b0          	lea    -0x50(%rbp),%rax
    170b:	48 89 c7             	mov    %rax,%rdi
    170e:	e8 31 02 00 00       	call   1944 <_ZNSt3setIiSt4lessIiESaIiEED1Ev>
    1713:	eb 07                	jmp    171c <main+0x3b3>
    1715:	f3 0f 1e fa          	endbr64 
    1719:	48 89 c3             	mov    %rax,%rbx
    171c:	48 8d 45 80          	lea    -0x80(%rbp),%rax
    1720:	48 89 c7             	mov    %rax,%rdi
    1723:	e8 1c 02 00 00       	call   1944 <_ZNSt3setIiSt4lessIiESaIiEED1Ev>
    1728:	eb 07                	jmp    1731 <main+0x3c8>
    172a:	f3 0f 1e fa          	endbr64 
    172e:	48 89 c3             	mov    %rax,%rbx
    1731:	48 8d 85 60 ff ff ff 	lea    -0xa0(%rbp),%rax
    1738:	48 89 c7             	mov    %rax,%rdi
    173b:	e8 f0 02 00 00       	call   1a30 <_ZNSt6vectorIiSaIiEED1Ev>
    1740:	48 8d 85 40 ff ff ff 	lea    -0xc0(%rbp),%rax
    1747:	48 89 c7             	mov    %rax,%rdi
    174a:	e8 e1 02 00 00       	call   1a30 <_ZNSt6vectorIiSaIiEED1Ev>
    174f:	48 89 d8             	mov    %rbx,%rax
    1752:	48 89 c7             	mov    %rax,%rdi
    1755:	e8 16 fb ff ff       	call   1270 <_Unwind_Resume@plt>
    175a:	e8 c1 fa ff ff       	call   1220 <__stack_chk_fail@plt>
    175f:	48 8b 5d f8          	mov    -0x8(%rbp),%rbx
    1763:	c9                   	leave  
    1764:	c3                   	ret    

0000000000001765 <_Z41__static_initialization_and_destruction_0ii>:
    1765:	f3 0f 1e fa          	endbr64 
    1769:	55                   	push   %rbp
    176a:	48 89 e5             	mov    %rsp,%rbp
    176d:	48 83 ec 10          	sub    $0x10,%rsp
    1771:	89 7d fc             	mov    %edi,-0x4(%rbp)
    1774:	89 75 f8             	mov    %esi,-0x8(%rbp)
    1777:	83 7d fc 01          	cmpl   $0x1,-0x4(%rbp)
    177b:	75 3b                	jne    17b8 <_Z41__static_initialization_and_destruction_0ii+0x53>
    177d:	81 7d f8 ff ff 00 00 	cmpl   $0xffff,-0x8(%rbp)
    1784:	75 32                	jne    17b8 <_Z41__static_initialization_and_destruction_0ii+0x53>
    1786:	48 8d 05 ec 5a 00 00 	lea    0x5aec(%rip),%rax        # 7279 <_ZStL8__ioinit>
    178d:	48 89 c7             	mov    %rax,%rdi
    1790:	e8 ab fa ff ff       	call   1240 <_ZNSt8ios_base4InitC1Ev@plt>
    1795:	48 8d 05 6c 58 00 00 	lea    0x586c(%rip),%rax        # 7008 <__dso_handle>
    179c:	48 89 c2             	mov    %rax,%rdx
    179f:	48 8d 05 d3 5a 00 00 	lea    0x5ad3(%rip),%rax        # 7279 <_ZStL8__ioinit>
    17a6:	48 89 c6             	mov    %rax,%rsi
    17a9:	48 8b 05 48 58 00 00 	mov    0x5848(%rip),%rax        # 6ff8 <_ZNSt8ios_base4InitD1Ev@GLIBCXX_3.4>
    17b0:	48 89 c7             	mov    %rax,%rdi
    17b3:	e8 18 fa ff ff       	call   11d0 <__cxa_atexit@plt>
    17b8:	90                   	nop
    17b9:	c9                   	leave  
    17ba:	c3                   	ret    

00000000000017bb <_GLOBAL__sub_I_main>:
    17bb:	f3 0f 1e fa          	endbr64 
    17bf:	55                   	push   %rbp
    17c0:	48 89 e5             	mov    %rsp,%rbp
    17c3:	be ff ff 00 00       	mov    $0xffff,%esi
    17c8:	bf 01 00 00 00       	mov    $0x1,%edi
    17cd:	e8 93 ff ff ff       	call   1765 <_Z41__static_initialization_and_destruction_0ii>
    17d2:	5d                   	pop    %rbp
    17d3:	c3                   	ret    

00000000000017d4 <_ZnwmPv>:
    17d4:	f3 0f 1e fa          	endbr64 
    17d8:	55                   	push   %rbp
    17d9:	48 89 e5             	mov    %rsp,%rbp
    17dc:	48 89 7d f8          	mov    %rdi,-0x8(%rbp)
    17e0:	48 89 75 f0          	mov    %rsi,-0x10(%rbp)
    17e4:	48 8b 45 f0          	mov    -0x10(%rbp),%rax
    17e8:	5d                   	pop    %rbp
    17e9:	c3                   	ret    

00000000000017ea <_ZSt3minImERKT_S2_S2_>:
    17ea:	f3 0f 1e fa          	endbr64 
    17ee:	55                   	push   %rbp
    17ef:	48 89 e5             	mov    %rsp,%rbp
    17f2:	48 89 7d f8          	mov    %rdi,-0x8(%rbp)
    17f6:	48 89 75 f0          	mov    %rsi,-0x10(%rbp)
    17fa:	48 8b 45 f0          	mov    -0x10(%rbp),%rax
    17fe:	48 8b 10             	mov    (%rax),%rdx
    1801:	48 8b 45 f8          	mov    -0x8(%rbp),%rax
    1805:	48 8b 00             	mov    (%rax),%rax
    1808:	48 39 c2             	cmp    %rax,%rdx
    180b:	73 06                	jae    1813 <_ZSt3minImERKT_S2_S2_+0x29>
    180d:	48 8b 45 f0          	mov    -0x10(%rbp),%rax
    1811:	eb 04                	jmp    1817 <_ZSt3minImERKT_S2_S2_+0x2d>
    1813:	48 8b 45 f8          	mov    -0x8(%rbp),%rax
    1817:	5d                   	pop    %rbp
    1818:	c3                   	ret    
    1819:	90                   	nop

000000000000181a <_ZNSt15_Rb_tree_headerC1Ev>:
    181a:	f3 0f 1e fa          	endbr64 
    181e:	55                   	push   %rbp
    181f:	48 89 e5             	mov    %rsp,%rbp
    1822:	48 83 ec 10          	sub    $0x10,%rsp
    1826:	48 89 7d f8          	mov    %rdi,-0x8(%rbp)
    182a:	48 8b 45 f8          	mov    -0x8(%rbp),%rax
    182e:	c7 00 00 00 00 00    	movl   $0x0,(%rax)
    1834:	48 8b 45 f8          	mov    -0x8(%rbp),%rax
    1838:	48 89 c7             	mov    %rax,%rdi
    183b:	e8 04 00 00 00       	call   1844 <_ZNSt15_Rb_tree_header8_M_resetEv>
    1840:	90                   	nop
    1841:	c9                   	leave  
    1842:	c3                   	ret    
    1843:	90                   	nop

0000000000001844 <_ZNSt15_Rb_tree_header8_M_resetEv>:
    1844:	f3 0f 1e fa          	endbr64 
    1848:	55                   	push   %rbp
    1849:	48 89 e5             	mov    %rsp,%rbp
    184c:	48 89 7d f8          	mov    %rdi,-0x8(%rbp)
    1850:	48 8b 45 f8          	mov    -0x8(%rbp),%rax
    1854:	48 c7 40 08 00 00 00 	movq   $0x0,0x8(%rax)
    185b:	00 
    185c:	48 8b 55 f8          	mov    -0x8(%rbp),%rdx
    1860:	48 8b 45 f8          	mov    -0x8(%rbp),%rax
    1864:	48 89 50 10          	mov    %rdx,0x10(%rax)
    1868:	48 8b 55 f8          	mov    -0x8(%rbp),%rdx
    186c:	48 8b 45 f8          	mov    -0x8(%rbp),%rax
    1870:	48 89 50 18          	mov    %rdx,0x18(%rax)
    1874:	48 8b 45 f8          	mov    -0x8(%rbp),%rax
    1878:	48 c7 40 20 00 00 00 	movq   $0x0,0x20(%rax)
    187f:	00 
    1880:	90                   	nop
    1881:	5d                   	pop    %rbp
    1882:	c3                   	ret    
    1883:	90                   	nop

0000000000001884 <_ZNSt12_Vector_baseIiSaIiEE12_Vector_implD1Ev>:
    1884:	f3 0f 1e fa          	endbr64 
    1888:	55                   	push   %rbp
    1889:	48 89 e5             	mov    %rsp,%rbp
    188c:	48 83 ec 10          	sub    $0x10,%rsp
    1890:	48 89 7d f8          	mov    %rdi,-0x8(%rbp)
    1894:	48 8b 45 f8          	mov    -0x8(%rbp),%rax
    1898:	48 89 c7             	mov    %rax,%rdi
    189b:	e8 1e 01 00 00       	call   19be <_ZNSaIiED1Ev>
    18a0:	90                   	nop
    18a1:	c9                   	leave  
    18a2:	c3                   	ret    
    18a3:	90                   	nop

00000000000018a4 <_ZNSt12_Vector_baseIiSaIiEEC1Ev>:
    18a4:	f3 0f 1e fa          	endbr64 
    18a8:	55                   	push   %rbp
    18a9:	48 89 e5             	mov    %rsp,%rbp
    18ac:	48 83 ec 10          	sub    $0x10,%rsp
    18b0:	48 89 7d f8          	mov    %rdi,-0x8(%rbp)
    18b4:	48 8b 45 f8          	mov    -0x8(%rbp),%rax
    18b8:	48 89 c7             	mov    %rax,%rdi
    18bb:	e8 d2 00 00 00       	call   1992 <_ZNSt12_Vector_baseIiSaIiEE12_Vector_implC1Ev>
    18c0:	90                   	nop
    18c1:	c9                   	leave  
    18c2:	c3                   	ret    
    18c3:	90                   	nop

00000000000018c4 <_ZNSt6vectorIiSaIiEEC1Ev>:
    18c4:	f3 0f 1e fa          	endbr64 
    18c8:	55                   	push   %rbp
    18c9:	48 89 e5             	mov    %rsp,%rbp
    18cc:	48 83 ec 10          	sub    $0x10,%rsp
    18d0:	48 89 7d f8          	mov    %rdi,-0x8(%rbp)
    18d4:	48 8b 45 f8          	mov    -0x8(%rbp),%rax
    18d8:	48 89 c7             	mov    %rax,%rdi
    18db:	e8 c4 ff ff ff       	call   18a4 <_ZNSt12_Vector_baseIiSaIiEEC1Ev>
    18e0:	90                   	nop
    18e1:	c9                   	leave  
    18e2:	c3                   	ret    
    18e3:	90                   	nop

00000000000018e4 <_ZNSt8_Rb_treeIiiSt9_IdentityIiESt4lessIiESaIiEE13_Rb_tree_implIS3_Lb1EED1Ev>:
    18e4:	f3 0f 1e fa          	endbr64 
    18e8:	55                   	push   %rbp
    18e9:	48 89 e5             	mov    %rsp,%rbp
    18ec:	48 83 ec 10          	sub    $0x10,%rsp
    18f0:	48 89 7d f8          	mov    %rdi,-0x8(%rbp)
    18f4:	48 8b 45 f8          	mov    -0x8(%rbp),%rax
    18f8:	48 89 c7             	mov    %rax,%rdi
    18fb:	e8 34 02 00 00       	call   1b34 <_ZNSaISt13_Rb_tree_nodeIiEED1Ev>
    1900:	90                   	nop
    1901:	c9                   	leave  
    1902:	c3                   	ret    
    1903:	90                   	nop

0000000000001904 <_ZNSt8_Rb_treeIiiSt9_IdentityIiESt4lessIiESaIiEEC1Ev>:
    1904:	f3 0f 1e fa          	endbr64 
    1908:	55                   	push   %rbp
    1909:	48 89 e5             	mov    %rsp,%rbp
    190c:	48 83 ec 10          	sub    $0x10,%rsp
    1910:	48 89 7d f8          	mov    %rdi,-0x8(%rbp)
    1914:	48 8b 45 f8          	mov    -0x8(%rbp),%rax
    1918:	48 89 c7             	mov    %rax,%rdi
    191b:	e8 d8 01 00 00       	call   1af8 <_ZNSt8_Rb_treeIiiSt9_IdentityIiESt4lessIiESaIiEE13_Rb_tree_implIS3_Lb1EEC1Ev>
    1920:	90                   	nop
    1921:	c9                   	leave  
    1922:	c3                   	ret    
    1923:	90                   	nop

0000000000001924 <_ZNSt3setIiSt4lessIiESaIiEEC1Ev>:
    1924:	f3 0f 1e fa          	endbr64 
    1928:	55                   	push   %rbp
    1929:	48 89 e5             	mov    %rsp,%rbp
    192c:	48 83 ec 10          	sub    $0x10,%rsp
    1930:	48 89 7d f8          	mov    %rdi,-0x8(%rbp)
    1934:	48 8b 45 f8          	mov    -0x8(%rbp),%rax
    1938:	48 89 c7             	mov    %rax,%rdi
    193b:	e8 c4 ff ff ff       	call   1904 <_ZNSt8_Rb_treeIiiSt9_IdentityIiESt4lessIiESaIiEEC1Ev>
    1940:	90                   	nop
    1941:	c9                   	leave  
    1942:	c3                   	ret    
    1943:	90                   	nop

0000000000001944 <_ZNSt3setIiSt4lessIiESaIiEED1Ev>:
    1944:	f3 0f 1e fa          	endbr64 
    1948:	55                   	push   %rbp
    1949:	48 89 e5             	mov    %rsp,%rbp
    194c:	48 83 ec 10          	sub    $0x10,%rsp
    1950:	48 89 7d f8          	mov    %rdi,-0x8(%rbp)
    1954:	48 8b 45 f8          	mov    -0x8(%rbp),%rax
    1958:	48 89 c7             	mov    %rax,%rdi
    195b:	e8 f4 01 00 00       	call   1b54 <_ZNSt8_Rb_treeIiiSt9_IdentityIiESt4lessIiESaIiEED1Ev>
    1960:	90                   	nop
    1961:	c9                   	leave  
    1962:	c3                   	ret    

0000000000001963 <_ZSt3maxImERKT_S2_S2_>:
    1963:	f3 0f 1e fa          	endbr64 
    1967:	55                   	push   %rbp
    1968:	48 89 e5             	mov    %rsp,%rbp
    196b:	48 89 7d f8          	mov    %rdi,-0x8(%rbp)
    196f:	48 89 75 f0          	mov    %rsi,-0x10(%rbp)
    1973:	48 8b 45 f8          	mov    -0x8(%rbp),%rax
    1977:	48 8b 10             	mov    (%rax),%rdx
    197a:	48 8b 45 f0          	mov    -0x10(%rbp),%rax
    197e:	48 8b 00             	mov    (%rax),%rax
    1981:	48 39 c2             	cmp    %rax,%rdx
    1984:	73 06                	jae    198c <_ZSt3maxImERKT_S2_S2_+0x29>
    1986:	48 8b 45 f0          	mov    -0x10(%rbp),%rax
    198a:	eb 04                	jmp    1990 <_ZSt3maxImERKT_S2_S2_+0x2d>
    198c:	48 8b 45 f8          	mov    -0x8(%rbp),%rax
    1990:	5d                   	pop    %rbp
    1991:	c3                   	ret    

0000000000001992 <_ZNSt12_Vector_baseIiSaIiEE12_Vector_implC1Ev>:
    1992:	f3 0f 1e fa          	endbr64 
    1996:	55                   	push   %rbp
    1997:	48 89 e5             	mov    %rsp,%rbp
    199a:	48 83 ec 10          	sub    $0x10,%rsp
    199e:	48 89 7d f8          	mov    %rdi,-0x8(%rbp)
    19a2:	48 8b 45 f8          	mov    -0x8(%rbp),%rax
    19a6:	48 89 c7             	mov    %rax,%rdi
    19a9:	e8 c0 04 00 00       	call   1e6e <_ZNSaIiEC1Ev>
    19ae:	48 8b 45 f8          	mov    -0x8(%rbp),%rax
    19b2:	48 89 c7             	mov    %rax,%rdi
    19b5:	e8 d4 04 00 00       	call   1e8e <_ZNSt12_Vector_baseIiSaIiEE17_Vector_impl_dataC1Ev>
    19ba:	90                   	nop
    19bb:	c9                   	leave  
    19bc:	c3                   	ret    
    19bd:	90                   	nop

00000000000019be <_ZNSaIiED1Ev>:
    19be:	f3 0f 1e fa          	endbr64 
    19c2:	55                   	push   %rbp
    19c3:	48 89 e5             	mov    %rsp,%rbp
    19c6:	48 83 ec 10          	sub    $0x10,%rsp
    19ca:	48 89 7d f8          	mov    %rdi,-0x8(%rbp)
    19ce:	48 8b 45 f8          	mov    -0x8(%rbp),%rax
    19d2:	48 89 c7             	mov    %rax,%rdi
    19d5:	e8 e6 04 00 00       	call   1ec0 <_ZN9__gnu_cxx13new_allocatorIiED1Ev>
    19da:	90                   	nop
    19db:	c9                   	leave  
    19dc:	c3                   	ret    
    19dd:	90                   	nop

00000000000019de <_ZNSt12_Vector_baseIiSaIiEED1Ev>:
    19de:	f3 0f 1e fa          	endbr64 
    19e2:	55                   	push   %rbp
    19e3:	48 89 e5             	mov    %rsp,%rbp
    19e6:	48 83 ec 10          	sub    $0x10,%rsp
    19ea:	48 89 7d f8          	mov    %rdi,-0x8(%rbp)
    19ee:	48 8b 45 f8          	mov    -0x8(%rbp),%rax
    19f2:	48 8b 50 10          	mov    0x10(%rax),%rdx
    19f6:	48 8b 45 f8          	mov    -0x8(%rbp),%rax
    19fa:	48 8b 08             	mov    (%rax),%rcx
    19fd:	48 89 d0             	mov    %rdx,%rax
    1a00:	48 29 c8             	sub    %rcx,%rax
    1a03:	48 c1 f8 02          	sar    $0x2,%rax
    1a07:	48 89 c2             	mov    %rax,%rdx
    1a0a:	48 8b 45 f8          	mov    -0x8(%rbp),%rax
    1a0e:	48 8b 08             	mov    (%rax),%rcx
    1a11:	48 8b 45 f8          	mov    -0x8(%rbp),%rax
    1a15:	48 89 ce             	mov    %rcx,%rsi
    1a18:	48 89 c7             	mov    %rax,%rdi
    1a1b:	e8 b0 04 00 00       	call   1ed0 <_ZNSt12_Vector_baseIiSaIiEE13_M_deallocateEPim>
    1a20:	48 8b 45 f8          	mov    -0x8(%rbp),%rax
    1a24:	48 89 c7             	mov    %rax,%rdi
    1a27:	e8 58 fe ff ff       	call   1884 <_ZNSt12_Vector_baseIiSaIiEE12_Vector_implD1Ev>
    1a2c:	90                   	nop
    1a2d:	c9                   	leave  
    1a2e:	c3                   	ret    
    1a2f:	90                   	nop

0000000000001a30 <_ZNSt6vectorIiSaIiEED1Ev>:
    1a30:	f3 0f 1e fa          	endbr64 
    1a34:	55                   	push   %rbp
    1a35:	48 89 e5             	mov    %rsp,%rbp
    1a38:	48 83 ec 10          	sub    $0x10,%rsp
    1a3c:	48 89 7d f8          	mov    %rdi,-0x8(%rbp)
    1a40:	48 8b 45 f8          	mov    -0x8(%rbp),%rax
    1a44:	48 89 c7             	mov    %rax,%rdi
    1a47:	e8 be 04 00 00       	call   1f0a <_ZNSt12_Vector_baseIiSaIiEE19_M_get_Tp_allocatorEv>
    1a4c:	48 89 c2             	mov    %rax,%rdx
    1a4f:	48 8b 45 f8          	mov    -0x8(%rbp),%rax
    1a53:	48 8b 48 08          	mov    0x8(%rax),%rcx
    1a57:	48 8b 45 f8          	mov    -0x8(%rbp),%rax
    1a5b:	48 8b 00             	mov    (%rax),%rax
    1a5e:	48 89 ce             	mov    %rcx,%rsi
    1a61:	48 89 c7             	mov    %rax,%rdi
    1a64:	e8 b3 04 00 00       	call   1f1c <_ZSt8_DestroyIPiiEvT_S1_RSaIT0_E>
    1a69:	48 8b 45 f8          	mov    -0x8(%rbp),%rax
    1a6d:	48 89 c7             	mov    %rax,%rdi
    1a70:	e8 69 ff ff ff       	call   19de <_ZNSt12_Vector_baseIiSaIiEED1Ev>
    1a75:	90                   	nop
    1a76:	c9                   	leave  
    1a77:	c3                   	ret    

0000000000001a78 <_ZNSt6vectorIiSaIiEE9push_backERKi>:
    1a78:	f3 0f 1e fa          	endbr64 
    1a7c:	55                   	push   %rbp
    1a7d:	48 89 e5             	mov    %rsp,%rbp
    1a80:	48 83 ec 10          	sub    $0x10,%rsp
    1a84:	48 89 7d f8          	mov    %rdi,-0x8(%rbp)
    1a88:	48 89 75 f0          	mov    %rsi,-0x10(%rbp)
    1a8c:	48 8b 45 f8          	mov    -0x8(%rbp),%rax
    1a90:	48 8b 50 08          	mov    0x8(%rax),%rdx
    1a94:	48 8b 45 f8          	mov    -0x8(%rbp),%rax
    1a98:	48 8b 40 10          	mov    0x10(%rax),%rax
    1a9c:	48 39 c2             	cmp    %rax,%rdx
    1a9f:	74 31                	je     1ad2 <_ZNSt6vectorIiSaIiEE9push_backERKi+0x5a>
    1aa1:	48 8b 45 f8          	mov    -0x8(%rbp),%rax
    1aa5:	48 8b 48 08          	mov    0x8(%rax),%rcx
    1aa9:	48 8b 45 f8          	mov    -0x8(%rbp),%rax
    1aad:	48 8b 55 f0          	mov    -0x10(%rbp),%rdx
    1ab1:	48 89 ce             	mov    %rcx,%rsi
    1ab4:	48 89 c7             	mov    %rax,%rdi
    1ab7:	e8 8e 04 00 00       	call   1f4a <_ZNSt16allocator_traitsISaIiEE9constructIiJRKiEEEvRS0_PT_DpOT0_>
    1abc:	48 8b 45 f8          	mov    -0x8(%rbp),%rax
    1ac0:	48 8b 40 08          	mov    0x8(%rax),%rax
    1ac4:	48 8d 50 04          	lea    0x4(%rax),%rdx
    1ac8:	48 8b 45 f8          	mov    -0x8(%rbp),%rax
    1acc:	48 89 50 08          	mov    %rdx,0x8(%rax)
    1ad0:	eb 22                	jmp    1af4 <_ZNSt6vectorIiSaIiEE9push_backERKi+0x7c>
    1ad2:	48 8b 45 f8          	mov    -0x8(%rbp),%rax
    1ad6:	48 89 c7             	mov    %rax,%rdi
    1ad9:	e8 00 01 00 00       	call   1bde <_ZNSt6vectorIiSaIiEE3endEv>
    1ade:	48 89 c1             	mov    %rax,%rcx
    1ae1:	48 8b 55 f0          	mov    -0x10(%rbp),%rdx
    1ae5:	48 8b 45 f8          	mov    -0x8(%rbp),%rax
    1ae9:	48 89 ce             	mov    %rcx,%rsi
    1aec:	48 89 c7             	mov    %rax,%rdi
    1aef:	e8 94 04 00 00       	call   1f88 <_ZNSt6vectorIiSaIiEE17_M_realloc_insertIJRKiEEEvN9__gnu_cxx17__normal_iteratorIPiS1_EEDpOT_>
    1af4:	90                   	nop
    1af5:	c9                   	leave  
    1af6:	c3                   	ret    
    1af7:	90                   	nop

0000000000001af8 <_ZNSt8_Rb_treeIiiSt9_IdentityIiESt4lessIiESaIiEE13_Rb_tree_implIS3_Lb1EEC1Ev>:
    1af8:	f3 0f 1e fa          	endbr64 
    1afc:	55                   	push   %rbp
    1afd:	48 89 e5             	mov    %rsp,%rbp
    1b00:	48 83 ec 10          	sub    $0x10,%rsp
    1b04:	48 89 7d f8          	mov    %rdi,-0x8(%rbp)
    1b08:	48 8b 45 f8          	mov    -0x8(%rbp),%rax
    1b0c:	48 89 c7             	mov    %rax,%rdi
    1b0f:	e8 2e 06 00 00       	call   2142 <_ZNSaISt13_Rb_tree_nodeIiEEC1Ev>
    1b14:	48 8b 45 f8          	mov    -0x8(%rbp),%rax
    1b18:	48 89 c7             	mov    %rax,%rdi
    1b1b:	e8 42 06 00 00       	call   2162 <_ZNSt20_Rb_tree_key_compareISt4lessIiEEC1Ev>
    1b20:	48 8b 45 f8          	mov    -0x8(%rbp),%rax
    1b24:	48 83 c0 08          	add    $0x8,%rax
    1b28:	48 89 c7             	mov    %rax,%rdi
    1b2b:	e8 ea fc ff ff       	call   181a <_ZNSt15_Rb_tree_headerC1Ev>
    1b30:	90                   	nop
    1b31:	c9                   	leave  
    1b32:	c3                   	ret    
    1b33:	90                   	nop

0000000000001b34 <_ZNSaISt13_Rb_tree_nodeIiEED1Ev>:
    1b34:	f3 0f 1e fa          	endbr64 
    1b38:	55                   	push   %rbp
    1b39:	48 89 e5             	mov    %rsp,%rbp
    1b3c:	48 83 ec 10          	sub    $0x10,%rsp
    1b40:	48 89 7d f8          	mov    %rdi,-0x8(%rbp)
    1b44:	48 8b 45 f8          	mov    -0x8(%rbp),%rax
    1b48:	48 89 c7             	mov    %rax,%rdi
    1b4b:	e8 22 06 00 00       	call   2172 <_ZN9__gnu_cxx13new_allocatorISt13_Rb_tree_nodeIiEED1Ev>
    1b50:	90                   	nop
    1b51:	c9                   	leave  
    1b52:	c3                   	ret    
    1b53:	90                   	nop

0000000000001b54 <_ZNSt8_Rb_treeIiiSt9_IdentityIiESt4lessIiESaIiEED1Ev>:
    1b54:	f3 0f 1e fa          	endbr64 
    1b58:	55                   	push   %rbp
    1b59:	48 89 e5             	mov    %rsp,%rbp
    1b5c:	48 83 ec 10          	sub    $0x10,%rsp
    1b60:	48 89 7d f8          	mov    %rdi,-0x8(%rbp)
    1b64:	48 8b 45 f8          	mov    -0x8(%rbp),%rax
    1b68:	48 89 c7             	mov    %rax,%rdi
    1b6b:	e8 7c 06 00 00       	call   21ec <_ZNSt8_Rb_treeIiiSt9_IdentityIiESt4lessIiESaIiEE8_M_beginEv>
    1b70:	48 89 c2             	mov    %rax,%rdx
    1b73:	48 8b 45 f8          	mov    -0x8(%rbp),%rax
    1b77:	48 89 d6             	mov    %rdx,%rsi
    1b7a:	48 89 c7             	mov    %rax,%rdi
    1b7d:	e8 00 06 00 00       	call   2182 <_ZNSt8_Rb_treeIiiSt9_IdentityIiESt4lessIiESaIiEE8_M_eraseEPSt13_Rb_tree_nodeIiE>
    1b82:	48 8b 45 f8          	mov    -0x8(%rbp),%rax
    1b86:	48 89 c7             	mov    %rax,%rdi
    1b89:	e8 56 fd ff ff       	call   18e4 <_ZNSt8_Rb_treeIiiSt9_IdentityIiESt4lessIiESaIiEE13_Rb_tree_implIS3_Lb1EED1Ev>
    1b8e:	90                   	nop
    1b8f:	c9                   	leave  
    1b90:	c3                   	ret    
    1b91:	90                   	nop

0000000000001b92 <_ZNSt6vectorIiSaIiEE5beginEv>:
    1b92:	f3 0f 1e fa          	endbr64 
    1b96:	55                   	push   %rbp
    1b97:	48 89 e5             	mov    %rsp,%rbp
    1b9a:	48 83 ec 20          	sub    $0x20,%rsp
    1b9e:	48 89 7d e8          	mov    %rdi,-0x18(%rbp)
    1ba2:	64 48 8b 04 25 28 00 	mov    %fs:0x28,%rax
    1ba9:	00 00 
    1bab:	48 89 45 f8          	mov    %rax,-0x8(%rbp)
    1baf:	31 c0                	xor    %eax,%eax
    1bb1:	48 8b 55 e8          	mov    -0x18(%rbp),%rdx
    1bb5:	48 8d 45 f0          	lea    -0x10(%rbp),%rax
    1bb9:	48 89 d6             	mov    %rdx,%rsi
    1bbc:	48 89 c7             	mov    %rax,%rdi
    1bbf:	e8 46 06 00 00       	call   220a <_ZN9__gnu_cxx17__normal_iteratorIPiSt6vectorIiSaIiEEEC1ERKS1_>
    1bc4:	48 8b 45 f0          	mov    -0x10(%rbp),%rax
    1bc8:	48 8b 55 f8          	mov    -0x8(%rbp),%rdx
    1bcc:	64 48 2b 14 25 28 00 	sub    %fs:0x28,%rdx
    1bd3:	00 00 
    1bd5:	74 05                	je     1bdc <_ZNSt6vectorIiSaIiEE5beginEv+0x4a>
    1bd7:	e8 44 f6 ff ff       	call   1220 <__stack_chk_fail@plt>
    1bdc:	c9                   	leave  
    1bdd:	c3                   	ret    

0000000000001bde <_ZNSt6vectorIiSaIiEE3endEv>:
    1bde:	f3 0f 1e fa          	endbr64 
    1be2:	55                   	push   %rbp
    1be3:	48 89 e5             	mov    %rsp,%rbp
    1be6:	48 83 ec 20          	sub    $0x20,%rsp
    1bea:	48 89 7d e8          	mov    %rdi,-0x18(%rbp)
    1bee:	64 48 8b 04 25 28 00 	mov    %fs:0x28,%rax
    1bf5:	00 00 
    1bf7:	48 89 45 f8          	mov    %rax,-0x8(%rbp)
    1bfb:	31 c0                	xor    %eax,%eax
    1bfd:	48 8b 45 e8          	mov    -0x18(%rbp),%rax
    1c01:	48 8d 50 08          	lea    0x8(%rax),%rdx
    1c05:	48 8d 45 f0          	lea    -0x10(%rbp),%rax
    1c09:	48 89 d6             	mov    %rdx,%rsi
    1c0c:	48 89 c7             	mov    %rax,%rdi
    1c0f:	e8 f6 05 00 00       	call   220a <_ZN9__gnu_cxx17__normal_iteratorIPiSt6vectorIiSaIiEEEC1ERKS1_>
    1c14:	48 8b 45 f0          	mov    -0x10(%rbp),%rax
    1c18:	48 8b 55 f8          	mov    -0x8(%rbp),%rdx
    1c1c:	64 48 2b 14 25 28 00 	sub    %fs:0x28,%rdx
    1c23:	00 00 
    1c25:	74 05                	je     1c2c <_ZNSt6vectorIiSaIiEE3endEv+0x4e>
    1c27:	e8 f4 f5 ff ff       	call   1220 <__stack_chk_fail@plt>
    1c2c:	c9                   	leave  
    1c2d:	c3                   	ret    

0000000000001c2e <_ZN9__gnu_cxxneIPiSt6vectorIiSaIiEEEEbRKNS_17__normal_iteratorIT_T0_EESA_>:
    1c2e:	f3 0f 1e fa          	endbr64 
    1c32:	55                   	push   %rbp
    1c33:	48 89 e5             	mov    %rsp,%rbp
    1c36:	53                   	push   %rbx
    1c37:	48 83 ec 18          	sub    $0x18,%rsp
    1c3b:	48 89 7d e8          	mov    %rdi,-0x18(%rbp)
    1c3f:	48 89 75 e0          	mov    %rsi,-0x20(%rbp)
    1c43:	48 8b 45 e8          	mov    -0x18(%rbp),%rax
    1c47:	48 89 c7             	mov    %rax,%rdi
    1c4a:	e8 dd 05 00 00       	call   222c <_ZNK9__gnu_cxx17__normal_iteratorIPiSt6vectorIiSaIiEEE4baseEv>
    1c4f:	48 8b 18             	mov    (%rax),%rbx
    1c52:	48 8b 45 e0          	mov    -0x20(%rbp),%rax
    1c56:	48 89 c7             	mov    %rax,%rdi
    1c59:	e8 ce 05 00 00       	call   222c <_ZNK9__gnu_cxx17__normal_iteratorIPiSt6vectorIiSaIiEEE4baseEv>
    1c5e:	48 8b 00             	mov    (%rax),%rax
    1c61:	48 39 c3             	cmp    %rax,%rbx
    1c64:	0f 95 c0             	setne  %al
    1c67:	48 8b 5d f8          	mov    -0x8(%rbp),%rbx
    1c6b:	c9                   	leave  
    1c6c:	c3                   	ret    
    1c6d:	90                   	nop

0000000000001c6e <_ZN9__gnu_cxx17__normal_iteratorIPiSt6vectorIiSaIiEEEppEv>:
    1c6e:	f3 0f 1e fa          	endbr64 
    1c72:	55                   	push   %rbp
    1c73:	48 89 e5             	mov    %rsp,%rbp
    1c76:	48 89 7d f8          	mov    %rdi,-0x8(%rbp)
    1c7a:	48 8b 45 f8          	mov    -0x8(%rbp),%rax
    1c7e:	48 8b 00             	mov    (%rax),%rax
    1c81:	48 8d 50 04          	lea    0x4(%rax),%rdx
    1c85:	48 8b 45 f8          	mov    -0x8(%rbp),%rax
    1c89:	48 89 10             	mov    %rdx,(%rax)
    1c8c:	48 8b 45 f8          	mov    -0x8(%rbp),%rax
    1c90:	5d                   	pop    %rbp
    1c91:	c3                   	ret    

0000000000001c92 <_ZNK9__gnu_cxx17__normal_iteratorIPiSt6vectorIiSaIiEEEdeEv>:
    1c92:	f3 0f 1e fa          	endbr64 
    1c96:	55                   	push   %rbp
    1c97:	48 89 e5             	mov    %rsp,%rbp
    1c9a:	48 89 7d f8          	mov    %rdi,-0x8(%rbp)
    1c9e:	48 8b 45 f8          	mov    -0x8(%rbp),%rax
    1ca2:	48 8b 00             	mov    (%rax),%rax
    1ca5:	5d                   	pop    %rbp
    1ca6:	c3                   	ret    
    1ca7:	90                   	nop

0000000000001ca8 <_ZNSt3setIiSt4lessIiESaIiEE6insertERKi>:
    1ca8:	f3 0f 1e fa          	endbr64 
    1cac:	55                   	push   %rbp
    1cad:	48 89 e5             	mov    %rsp,%rbp
    1cb0:	48 83 ec 40          	sub    $0x40,%rsp
    1cb4:	48 89 7d c8          	mov    %rdi,-0x38(%rbp)
    1cb8:	48 89 75 c0          	mov    %rsi,-0x40(%rbp)
    1cbc:	64 48 8b 04 25 28 00 	mov    %fs:0x28,%rax
    1cc3:	00 00 
    1cc5:	48 89 45 f8          	mov    %rax,-0x8(%rbp)
    1cc9:	31 c0                	xor    %eax,%eax
    1ccb:	48 8b 45 c8          	mov    -0x38(%rbp),%rax
    1ccf:	48 8b 55 c0          	mov    -0x40(%rbp),%rdx
    1cd3:	48 89 d6             	mov    %rdx,%rsi
    1cd6:	48 89 c7             	mov    %rax,%rdi
    1cd9:	e8 60 05 00 00       	call   223e <_ZNSt8_Rb_treeIiiSt9_IdentityIiESt4lessIiESaIiEE16_M_insert_uniqueIRKiEESt4pairISt17_Rb_tree_iteratorIiEbEOT_>
    1cde:	48 89 45 d0          	mov    %rax,-0x30(%rbp)
    1ce2:	48 89 55 d8          	mov    %rdx,-0x28(%rbp)
    1ce6:	48 8d 45 d0          	lea    -0x30(%rbp),%rax
    1cea:	48 8d 50 08          	lea    0x8(%rax),%rdx
    1cee:	48 8d 4d d0          	lea    -0x30(%rbp),%rcx
    1cf2:	48 8d 45 e0          	lea    -0x20(%rbp),%rax
    1cf6:	48 89 ce             	mov    %rcx,%rsi
    1cf9:	48 89 c7             	mov    %rax,%rdi
    1cfc:	e8 49 06 00 00       	call   234a <_ZNSt4pairISt23_Rb_tree_const_iteratorIiEbEC1IRSt17_Rb_tree_iteratorIiERbLb1EEEOT_OT0_>
    1d01:	48 8b 45 e0          	mov    -0x20(%rbp),%rax
    1d05:	48 8b 55 e8          	mov    -0x18(%rbp),%rdx
    1d09:	48 8b 4d f8          	mov    -0x8(%rbp),%rcx
    1d0d:	64 48 2b 0c 25 28 00 	sub    %fs:0x28,%rcx
    1d14:	00 00 
    1d16:	74 05                	je     1d1d <_ZNSt3setIiSt4lessIiESaIiEE6insertERKi+0x75>
    1d18:	e8 03 f5 ff ff       	call   1220 <__stack_chk_fail@plt>
    1d1d:	c9                   	leave  
    1d1e:	c3                   	ret    
    1d1f:	90                   	nop

0000000000001d20 <_ZNSt6vectorIiSaIiEEixEm>:
    1d20:	f3 0f 1e fa          	endbr64 
    1d24:	55                   	push   %rbp
    1d25:	48 89 e5             	mov    %rsp,%rbp
    1d28:	48 89 7d f8          	mov    %rdi,-0x8(%rbp)
    1d2c:	48 89 75 f0          	mov    %rsi,-0x10(%rbp)
    1d30:	48 8b 45 f8          	mov    -0x8(%rbp),%rax
    1d34:	48 8b 10             	mov    (%rax),%rdx
    1d37:	48 8b 45 f0          	mov    -0x10(%rbp),%rax
    1d3b:	48 c1 e0 02          	shl    $0x2,%rax
    1d3f:	48 01 d0             	add    %rdx,%rax
    1d42:	5d                   	pop    %rbp
    1d43:	c3                   	ret    

0000000000001d44 <_ZNSt3setIiSt4lessIiESaIiEE4findERKi>:
    1d44:	f3 0f 1e fa          	endbr64 
    1d48:	55                   	push   %rbp
    1d49:	48 89 e5             	mov    %rsp,%rbp
    1d4c:	48 83 ec 30          	sub    $0x30,%rsp
    1d50:	48 89 7d d8          	mov    %rdi,-0x28(%rbp)
    1d54:	48 89 75 d0          	mov    %rsi,-0x30(%rbp)
    1d58:	64 48 8b 04 25 28 00 	mov    %fs:0x28,%rax
    1d5f:	00 00 
    1d61:	48 89 45 f8          	mov    %rax,-0x8(%rbp)
    1d65:	31 c0                	xor    %eax,%eax
    1d67:	48 8b 45 d8          	mov    -0x28(%rbp),%rax
    1d6b:	48 8b 55 d0          	mov    -0x30(%rbp),%rdx
    1d6f:	48 89 d6             	mov    %rdx,%rsi
    1d72:	48 89 c7             	mov    %rax,%rdi
    1d75:	e8 22 06 00 00       	call   239c <_ZNSt8_Rb_treeIiiSt9_IdentityIiESt4lessIiESaIiEE4findERKi>
    1d7a:	48 89 45 e8          	mov    %rax,-0x18(%rbp)
    1d7e:	48 8d 55 e8          	lea    -0x18(%rbp),%rdx
    1d82:	48 8d 45 f0          	lea    -0x10(%rbp),%rax
    1d86:	48 89 d6             	mov    %rdx,%rsi
    1d89:	48 89 c7             	mov    %rax,%rdi
    1d8c:	e8 e1 06 00 00       	call   2472 <_ZNSt23_Rb_tree_const_iteratorIiEC1ERKSt17_Rb_tree_iteratorIiE>
    1d91:	48 8b 45 f0          	mov    -0x10(%rbp),%rax
    1d95:	48 8b 55 f8          	mov    -0x8(%rbp),%rdx
    1d99:	64 48 2b 14 25 28 00 	sub    %fs:0x28,%rdx
    1da0:	00 00 
    1da2:	74 05                	je     1da9 <_ZNSt3setIiSt4lessIiESaIiEE4findERKi+0x65>
    1da4:	e8 77 f4 ff ff       	call   1220 <__stack_chk_fail@plt>
    1da9:	c9                   	leave  
    1daa:	c3                   	ret    
    1dab:	90                   	nop

0000000000001dac <_ZNKSt3setIiSt4lessIiESaIiEE3endEv>:
    1dac:	f3 0f 1e fa          	endbr64 
    1db0:	55                   	push   %rbp
    1db1:	48 89 e5             	mov    %rsp,%rbp
    1db4:	48 83 ec 10          	sub    $0x10,%rsp
    1db8:	48 89 7d f8          	mov    %rdi,-0x8(%rbp)
    1dbc:	48 8b 45 f8          	mov    -0x8(%rbp),%rax
    1dc0:	48 89 c7             	mov    %rax,%rdi
    1dc3:	e8 cc 06 00 00       	call   2494 <_ZNKSt8_Rb_treeIiiSt9_IdentityIiESt4lessIiESaIiEE3endEv>
    1dc8:	c9                   	leave  
    1dc9:	c3                   	ret    

0000000000001dca <_ZStneRKSt23_Rb_tree_const_iteratorIiES2_>:
    1dca:	f3 0f 1e fa          	endbr64 
    1dce:	55                   	push   %rbp
    1dcf:	48 89 e5             	mov    %rsp,%rbp
    1dd2:	48 89 7d f8          	mov    %rdi,-0x8(%rbp)
    1dd6:	48 89 75 f0          	mov    %rsi,-0x10(%rbp)
    1dda:	48 8b 45 f8          	mov    -0x8(%rbp),%rax
    1dde:	48 8b 10             	mov    (%rax),%rdx
    1de1:	48 8b 45 f0          	mov    -0x10(%rbp),%rax
    1de5:	48 8b 00             	mov    (%rax),%rax
    1de8:	48 39 c2             	cmp    %rax,%rdx
    1deb:	0f 95 c0             	setne  %al
    1dee:	5d                   	pop    %rbp
    1def:	c3                   	ret    

0000000000001df0 <_ZNKSt3setIiSt4lessIiESaIiEE5beginEv>:
    1df0:	f3 0f 1e fa          	endbr64 
    1df4:	55                   	push   %rbp
    1df5:	48 89 e5             	mov    %rsp,%rbp
    1df8:	48 83 ec 10          	sub    $0x10,%rsp
    1dfc:	48 89 7d f8          	mov    %rdi,-0x8(%rbp)
    1e00:	48 8b 45 f8          	mov    -0x8(%rbp),%rax
    1e04:	48 89 c7             	mov    %rax,%rdi
    1e07:	e8 d8 06 00 00       	call   24e4 <_ZNKSt8_Rb_treeIiiSt9_IdentityIiESt4lessIiESaIiEE5beginEv>
    1e0c:	c9                   	leave  
    1e0d:	c3                   	ret    

0000000000001e0e <_ZNSt23_Rb_tree_const_iteratorIiEppEv>:
    1e0e:	f3 0f 1e fa          	endbr64 
    1e12:	55                   	push   %rbp
    1e13:	48 89 e5             	mov    %rsp,%rbp
    1e16:	48 83 ec 10          	sub    $0x10,%rsp
    1e1a:	48 89 7d f8          	mov    %rdi,-0x8(%rbp)
    1e1e:	48 8b 45 f8          	mov    -0x8(%rbp),%rax
    1e22:	48 8b 00             	mov    (%rax),%rax
    1e25:	48 89 c7             	mov    %rax,%rdi
    1e28:	e8 03 f4 ff ff       	call   1230 <_ZSt18_Rb_tree_incrementPKSt18_Rb_tree_node_base@plt>
    1e2d:	48 8b 55 f8          	mov    -0x8(%rbp),%rdx
    1e31:	48 89 02             	mov    %rax,(%rdx)
    1e34:	48 8b 45 f8          	mov    -0x8(%rbp),%rax
    1e38:	c9                   	leave  
    1e39:	c3                   	ret    

0000000000001e3a <_ZNKSt23_Rb_tree_const_iteratorIiEdeEv>:
    1e3a:	f3 0f 1e fa          	endbr64 
    1e3e:	55                   	push   %rbp
    1e3f:	48 89 e5             	mov    %rsp,%rbp
    1e42:	48 83 ec 10          	sub    $0x10,%rsp
    1e46:	48 89 7d f8          	mov    %rdi,-0x8(%rbp)
    1e4a:	48 8b 45 f8          	mov    -0x8(%rbp),%rax
    1e4e:	48 8b 00             	mov    (%rax),%rax
    1e51:	48 89 c7             	mov    %rax,%rdi
    1e54:	e8 db 06 00 00       	call   2534 <_ZNKSt13_Rb_tree_nodeIiE9_M_valptrEv>
    1e59:	c9                   	leave  
    1e5a:	c3                   	ret    

0000000000001e5b <_ZSt7forwardIbEOT_RNSt16remove_referenceIS0_E4typeE>:
    1e5b:	f3 0f 1e fa          	endbr64 
    1e5f:	55                   	push   %rbp
    1e60:	48 89 e5             	mov    %rsp,%rbp
    1e63:	48 89 7d f8          	mov    %rdi,-0x8(%rbp)
    1e67:	48 8b 45 f8          	mov    -0x8(%rbp),%rax
    1e6b:	5d                   	pop    %rbp
    1e6c:	c3                   	ret    
    1e6d:	90                   	nop

0000000000001e6e <_ZNSaIiEC1Ev>:
    1e6e:	f3 0f 1e fa          	endbr64 
    1e72:	55                   	push   %rbp
    1e73:	48 89 e5             	mov    %rsp,%rbp
    1e76:	48 83 ec 10          	sub    $0x10,%rsp
    1e7a:	48 89 7d f8          	mov    %rdi,-0x8(%rbp)
    1e7e:	48 8b 45 f8          	mov    -0x8(%rbp),%rax
    1e82:	48 89 c7             	mov    %rax,%rdi
    1e85:	e8 cc 06 00 00       	call   2556 <_ZN9__gnu_cxx13new_allocatorIiEC1Ev>
    1e8a:	90                   	nop
    1e8b:	c9                   	leave  
    1e8c:	c3                   	ret    
    1e8d:	90                   	nop

0000000000001e8e <_ZNSt12_Vector_baseIiSaIiEE17_Vector_impl_dataC1Ev>:
    1e8e:	f3 0f 1e fa          	endbr64 
    1e92:	55                   	push   %rbp
    1e93:	48 89 e5             	mov    %rsp,%rbp
    1e96:	48 89 7d f8          	mov    %rdi,-0x8(%rbp)
    1e9a:	48 8b 45 f8          	mov    -0x8(%rbp),%rax
    1e9e:	48 c7 00 00 00 00 00 	movq   $0x0,(%rax)
    1ea5:	48 8b 45 f8          	mov    -0x8(%rbp),%rax
    1ea9:	48 c7 40 08 00 00 00 	movq   $0x0,0x8(%rax)
    1eb0:	00 
    1eb1:	48 8b 45 f8          	mov    -0x8(%rbp),%rax
    1eb5:	48 c7 40 10 00 00 00 	movq   $0x0,0x10(%rax)
    1ebc:	00 
    1ebd:	90                   	nop
    1ebe:	5d                   	pop    %rbp
    1ebf:	c3                   	ret    

0000000000001ec0 <_ZN9__gnu_cxx13new_allocatorIiED1Ev>:
    1ec0:	f3 0f 1e fa          	endbr64 
    1ec4:	55                   	push   %rbp
    1ec5:	48 89 e5             	mov    %rsp,%rbp
    1ec8:	48 89 7d f8          	mov    %rdi,-0x8(%rbp)
    1ecc:	90                   	nop
    1ecd:	5d                   	pop    %rbp
    1ece:	c3                   	ret    
    1ecf:	90                   	nop

0000000000001ed0 <_ZNSt12_Vector_baseIiSaIiEE13_M_deallocateEPim>:
    1ed0:	f3 0f 1e fa          	endbr64 
    1ed4:	55                   	push   %rbp
    1ed5:	48 89 e5             	mov    %rsp,%rbp
    1ed8:	48 83 ec 20          	sub    $0x20,%rsp
    1edc:	48 89 7d f8          	mov    %rdi,-0x8(%rbp)
    1ee0:	48 89 75 f0          	mov    %rsi,-0x10(%rbp)
    1ee4:	48 89 55 e8          	mov    %rdx,-0x18(%rbp)
    1ee8:	48 83 7d f0 00       	cmpq   $0x0,-0x10(%rbp)
    1eed:	74 17                	je     1f06 <_ZNSt12_Vector_baseIiSaIiEE13_M_deallocateEPim+0x36>
    1eef:	48 8b 45 f8          	mov    -0x8(%rbp),%rax
    1ef3:	48 8b 55 e8          	mov    -0x18(%rbp),%rdx
    1ef7:	48 8b 4d f0          	mov    -0x10(%rbp),%rcx
    1efb:	48 89 ce             	mov    %rcx,%rsi
    1efe:	48 89 c7             	mov    %rax,%rdi
    1f01:	e8 5f 06 00 00       	call   2565 <_ZNSt16allocator_traitsISaIiEE10deallocateERS0_Pim>
    1f06:	90                   	nop
    1f07:	c9                   	leave  
    1f08:	c3                   	ret    
    1f09:	90                   	nop

0000000000001f0a <_ZNSt12_Vector_baseIiSaIiEE19_M_get_Tp_allocatorEv>:
    1f0a:	f3 0f 1e fa          	endbr64 
    1f0e:	55                   	push   %rbp
    1f0f:	48 89 e5             	mov    %rsp,%rbp
    1f12:	48 89 7d f8          	mov    %rdi,-0x8(%rbp)
    1f16:	48 8b 45 f8          	mov    -0x8(%rbp),%rax
    1f1a:	5d                   	pop    %rbp
    1f1b:	c3                   	ret    

0000000000001f1c <_ZSt8_DestroyIPiiEvT_S1_RSaIT0_E>:
    1f1c:	f3 0f 1e fa          	endbr64 
    1f20:	55                   	push   %rbp
    1f21:	48 89 e5             	mov    %rsp,%rbp
    1f24:	48 83 ec 20          	sub    $0x20,%rsp
    1f28:	48 89 7d f8          	mov    %rdi,-0x8(%rbp)
    1f2c:	48 89 75 f0          	mov    %rsi,-0x10(%rbp)
    1f30:	48 89 55 e8          	mov    %rdx,-0x18(%rbp)
    1f34:	48 8b 55 f0          	mov    -0x10(%rbp),%rdx
    1f38:	48 8b 45 f8          	mov    -0x8(%rbp),%rax
    1f3c:	48 89 d6             	mov    %rdx,%rsi
    1f3f:	48 89 c7             	mov    %rax,%rdi
    1f42:	e8 50 06 00 00       	call   2597 <_ZSt8_DestroyIPiEvT_S1_>
    1f47:	90                   	nop
    1f48:	c9                   	leave  
    1f49:	c3                   	ret    

0000000000001f4a <_ZNSt16allocator_traitsISaIiEE9constructIiJRKiEEEvRS0_PT_DpOT0_>:
    1f4a:	f3 0f 1e fa          	endbr64 
    1f4e:	55                   	push   %rbp
    1f4f:	48 89 e5             	mov    %rsp,%rbp
    1f52:	48 83 ec 20          	sub    $0x20,%rsp
    1f56:	48 89 7d f8          	mov    %rdi,-0x8(%rbp)
    1f5a:	48 89 75 f0          	mov    %rsi,-0x10(%rbp)
    1f5e:	48 89 55 e8          	mov    %rdx,-0x18(%rbp)
    1f62:	48 8b 45 e8          	mov    -0x18(%rbp),%rax
    1f66:	48 89 c7             	mov    %rax,%rdi
    1f69:	e8 53 06 00 00       	call   25c1 <_ZSt7forwardIRKiEOT_RNSt16remove_referenceIS2_E4typeE>
    1f6e:	48 89 c2             	mov    %rax,%rdx
    1f71:	48 8b 4d f0          	mov    -0x10(%rbp),%rcx
    1f75:	48 8b 45 f8          	mov    -0x8(%rbp),%rax
    1f79:	48 89 ce             	mov    %rcx,%rsi
    1f7c:	48 89 c7             	mov    %rax,%rdi
    1f7f:	e8 50 06 00 00       	call   25d4 <_ZN9__gnu_cxx13new_allocatorIiE9constructIiJRKiEEEvPT_DpOT0_>
    1f84:	90                   	nop
    1f85:	c9                   	leave  
    1f86:	c3                   	ret    
    1f87:	90                   	nop

0000000000001f88 <_ZNSt6vectorIiSaIiEE17_M_realloc_insertIJRKiEEEvN9__gnu_cxx17__normal_iteratorIPiS1_EEDpOT_>:
    1f88:	f3 0f 1e fa          	endbr64 
    1f8c:	55                   	push   %rbp
    1f8d:	48 89 e5             	mov    %rsp,%rbp
    1f90:	53                   	push   %rbx
    1f91:	48 83 ec 68          	sub    $0x68,%rsp
    1f95:	48 89 7d a8          	mov    %rdi,-0x58(%rbp)
    1f99:	48 89 75 a0          	mov    %rsi,-0x60(%rbp)
    1f9d:	48 89 55 98          	mov    %rdx,-0x68(%rbp)
    1fa1:	64 48 8b 04 25 28 00 	mov    %fs:0x28,%rax
    1fa8:	00 00 
    1faa:	48 89 45 e8          	mov    %rax,-0x18(%rbp)
    1fae:	31 c0                	xor    %eax,%eax
    1fb0:	48 8b 45 a8          	mov    -0x58(%rbp),%rax
    1fb4:	48 8d 15 97 20 00 00 	lea    0x2097(%rip),%rdx        # 4052 <_ZNSt8__detailL19_S_invalid_state_idE+0xa>
    1fbb:	be 01 00 00 00       	mov    $0x1,%esi
    1fc0:	48 89 c7             	mov    %rax,%rdi
    1fc3:	e8 4e 06 00 00       	call   2616 <_ZNKSt6vectorIiSaIiEE12_M_check_lenEmPKc>
    1fc8:	48 89 45 b8          	mov    %rax,-0x48(%rbp)
    1fcc:	48 8b 45 a8          	mov    -0x58(%rbp),%rax
    1fd0:	48 8b 00             	mov    (%rax),%rax
    1fd3:	48 89 45 c0          	mov    %rax,-0x40(%rbp)
    1fd7:	48 8b 45 a8          	mov    -0x58(%rbp),%rax
    1fdb:	48 8b 40 08          	mov    0x8(%rax),%rax
    1fdf:	48 89 45 c8          	mov    %rax,-0x38(%rbp)
    1fe3:	48 8b 45 a8          	mov    -0x58(%rbp),%rax
    1fe7:	48 89 c7             	mov    %rax,%rdi
    1fea:	e8 a3 fb ff ff       	call   1b92 <_ZNSt6vectorIiSaIiEE5beginEv>
    1fef:	48 89 45 b0          	mov    %rax,-0x50(%rbp)
    1ff3:	48 8d 55 b0          	lea    -0x50(%rbp),%rdx
    1ff7:	48 8d 45 a0          	lea    -0x60(%rbp),%rax
    1ffb:	48 89 d6             	mov    %rdx,%rsi
    1ffe:	48 89 c7             	mov    %rax,%rdi
    2001:	e8 ff 06 00 00       	call   2705 <_ZN9__gnu_cxxmiIPiSt6vectorIiSaIiEEEENS_17__normal_iteratorIT_T0_E15difference_typeERKS8_SB_>
    2006:	48 89 45 d0          	mov    %rax,-0x30(%rbp)
    200a:	48 8b 45 a8          	mov    -0x58(%rbp),%rax
    200e:	48 8b 55 b8          	mov    -0x48(%rbp),%rdx
    2012:	48 89 d6             	mov    %rdx,%rsi
    2015:	48 89 c7             	mov    %rax,%rdi
    2018:	e8 2b 07 00 00       	call   2748 <_ZNSt12_Vector_baseIiSaIiEE11_M_allocateEm>
    201d:	48 89 45 d8          	mov    %rax,-0x28(%rbp)
    2021:	48 8b 45 d8          	mov    -0x28(%rbp),%rax
    2025:	48 89 45 e0          	mov    %rax,-0x20(%rbp)
    2029:	48 8b 45 98          	mov    -0x68(%rbp),%rax
    202d:	48 89 c7             	mov    %rax,%rdi
    2030:	e8 8c 05 00 00       	call   25c1 <_ZSt7forwardIRKiEOT_RNSt16remove_referenceIS2_E4typeE>
    2035:	48 89 c2             	mov    %rax,%rdx
    2038:	48 8b 45 d0          	mov    -0x30(%rbp),%rax
    203c:	48 8d 0c 85 00 00 00 	lea    0x0(,%rax,4),%rcx
    2043:	00 
    2044:	48 8b 45 d8          	mov    -0x28(%rbp),%rax
    2048:	48 01 c1             	add    %rax,%rcx
    204b:	48 8b 45 a8          	mov    -0x58(%rbp),%rax
    204f:	48 89 ce             	mov    %rcx,%rsi
    2052:	48 89 c7             	mov    %rax,%rdi
    2055:	e8 f0 fe ff ff       	call   1f4a <_ZNSt16allocator_traitsISaIiEE9constructIiJRKiEEEvRS0_PT_DpOT0_>
    205a:	48 c7 45 e0 00 00 00 	movq   $0x0,-0x20(%rbp)
    2061:	00 
    2062:	48 8b 45 a8          	mov    -0x58(%rbp),%rax
    2066:	48 89 c7             	mov    %rax,%rdi
    2069:	e8 9c fe ff ff       	call   1f0a <_ZNSt12_Vector_baseIiSaIiEE19_M_get_Tp_allocatorEv>
    206e:	48 89 c3             	mov    %rax,%rbx
    2071:	48 8d 45 a0          	lea    -0x60(%rbp),%rax
    2075:	48 89 c7             	mov    %rax,%rdi
    2078:	e8 af 01 00 00       	call   222c <_ZNK9__gnu_cxx17__normal_iteratorIPiSt6vectorIiSaIiEEE4baseEv>
    207d:	48 8b 30             	mov    (%rax),%rsi
    2080:	48 8b 55 d8          	mov    -0x28(%rbp),%rdx
    2084:	48 8b 45 c0          	mov    -0x40(%rbp),%rax
    2088:	48 89 d9             	mov    %rbx,%rcx
    208b:	48 89 c7             	mov    %rax,%rdi
    208e:	e8 ec 06 00 00       	call   277f <_ZNSt6vectorIiSaIiEE11_S_relocateEPiS2_S2_RS0_>
    2093:	48 89 45 e0          	mov    %rax,-0x20(%rbp)
    2097:	48 83 45 e0 04       	addq   $0x4,-0x20(%rbp)
    209c:	48 8b 45 a8          	mov    -0x58(%rbp),%rax
    20a0:	48 89 c7             	mov    %rax,%rdi
    20a3:	e8 62 fe ff ff       	call   1f0a <_ZNSt12_Vector_baseIiSaIiEE19_M_get_Tp_allocatorEv>
    20a8:	48 89 c3             	mov    %rax,%rbx
    20ab:	48 8d 45 a0          	lea    -0x60(%rbp),%rax
    20af:	48 89 c7             	mov    %rax,%rdi
    20b2:	e8 75 01 00 00       	call   222c <_ZNK9__gnu_cxx17__normal_iteratorIPiSt6vectorIiSaIiEEE4baseEv>
    20b7:	48 8b 00             	mov    (%rax),%rax
    20ba:	48 8b 55 e0          	mov    -0x20(%rbp),%rdx
    20be:	48 8b 75 c8          	mov    -0x38(%rbp),%rsi
    20c2:	48 89 d9             	mov    %rbx,%rcx
    20c5:	48 89 c7             	mov    %rax,%rdi
    20c8:	e8 b2 06 00 00       	call   277f <_ZNSt6vectorIiSaIiEE11_S_relocateEPiS2_S2_RS0_>
    20cd:	48 89 45 e0          	mov    %rax,-0x20(%rbp)
    20d1:	48 8b 45 a8          	mov    -0x58(%rbp),%rax
    20d5:	48 8b 55 a8          	mov    -0x58(%rbp),%rdx
    20d9:	48 8b 52 10          	mov    0x10(%rdx),%rdx
    20dd:	48 2b 55 c0          	sub    -0x40(%rbp),%rdx
    20e1:	48 c1 fa 02          	sar    $0x2,%rdx
    20e5:	48 8b 4d c0          	mov    -0x40(%rbp),%rcx
    20e9:	48 89 ce             	mov    %rcx,%rsi
    20ec:	48 89 c7             	mov    %rax,%rdi
    20ef:	e8 dc fd ff ff       	call   1ed0 <_ZNSt12_Vector_baseIiSaIiEE13_M_deallocateEPim>
    20f4:	48 8b 45 a8          	mov    -0x58(%rbp),%rax
    20f8:	48 8b 55 d8          	mov    -0x28(%rbp),%rdx
    20fc:	48 89 10             	mov    %rdx,(%rax)
    20ff:	48 8b 45 a8          	mov    -0x58(%rbp),%rax
    2103:	48 8b 55 e0          	mov    -0x20(%rbp),%rdx
    2107:	48 89 50 08          	mov    %rdx,0x8(%rax)
    210b:	48 8b 45 b8          	mov    -0x48(%rbp),%rax
    210f:	48 8d 14 85 00 00 00 	lea    0x0(,%rax,4),%rdx
    2116:	00 
    2117:	48 8b 45 d8          	mov    -0x28(%rbp),%rax
    211b:	48 01 c2             	add    %rax,%rdx
    211e:	48 8b 45 a8          	mov    -0x58(%rbp),%rax
    2122:	48 89 50 10          	mov    %rdx,0x10(%rax)
    2126:	90                   	nop
    2127:	48 8b 45 e8          	mov    -0x18(%rbp),%rax
    212b:	64 48 2b 04 25 28 00 	sub    %fs:0x28,%rax
    2132:	00 00 
    2134:	74 05                	je     213b <_ZNSt6vectorIiSaIiEE17_M_realloc_insertIJRKiEEEvN9__gnu_cxx17__normal_iteratorIPiS1_EEDpOT_+0x1b3>
    2136:	e8 e5 f0 ff ff       	call   1220 <__stack_chk_fail@plt>
    213b:	48 8b 5d f8          	mov    -0x8(%rbp),%rbx
    213f:	c9                   	leave  
    2140:	c3                   	ret    
    2141:	90                   	nop

0000000000002142 <_ZNSaISt13_Rb_tree_nodeIiEEC1Ev>:
    2142:	f3 0f 1e fa          	endbr64 
    2146:	55                   	push   %rbp
    2147:	48 89 e5             	mov    %rsp,%rbp
    214a:	48 83 ec 10          	sub    $0x10,%rsp
    214e:	48 89 7d f8          	mov    %rdi,-0x8(%rbp)
    2152:	48 8b 45 f8          	mov    -0x8(%rbp),%rax
    2156:	48 89 c7             	mov    %rax,%rdi
    2159:	e8 58 06 00 00       	call   27b6 <_ZN9__gnu_cxx13new_allocatorISt13_Rb_tree_nodeIiEEC1Ev>
    215e:	90                   	nop
    215f:	c9                   	leave  
    2160:	c3                   	ret    
    2161:	90                   	nop

0000000000002162 <_ZNSt20_Rb_tree_key_compareISt4lessIiEEC1Ev>:
    2162:	f3 0f 1e fa          	endbr64 
    2166:	55                   	push   %rbp
    2167:	48 89 e5             	mov    %rsp,%rbp
    216a:	48 89 7d f8          	mov    %rdi,-0x8(%rbp)
    216e:	90                   	nop
    216f:	5d                   	pop    %rbp
    2170:	c3                   	ret    
    2171:	90                   	nop

0000000000002172 <_ZN9__gnu_cxx13new_allocatorISt13_Rb_tree_nodeIiEED1Ev>:
    2172:	f3 0f 1e fa          	endbr64 
    2176:	55                   	push   %rbp
    2177:	48 89 e5             	mov    %rsp,%rbp
    217a:	48 89 7d f8          	mov    %rdi,-0x8(%rbp)
    217e:	90                   	nop
    217f:	5d                   	pop    %rbp
    2180:	c3                   	ret    
    2181:	90                   	nop

0000000000002182 <_ZNSt8_Rb_treeIiiSt9_IdentityIiESt4lessIiESaIiEE8_M_eraseEPSt13_Rb_tree_nodeIiE>:
    2182:	f3 0f 1e fa          	endbr64 
    2186:	55                   	push   %rbp
    2187:	48 89 e5             	mov    %rsp,%rbp
    218a:	48 83 ec 20          	sub    $0x20,%rsp
    218e:	48 89 7d e8          	mov    %rdi,-0x18(%rbp)
    2192:	48 89 75 e0          	mov    %rsi,-0x20(%rbp)
    2196:	eb 49                	jmp    21e1 <_ZNSt8_Rb_treeIiiSt9_IdentityIiESt4lessIiESaIiEE8_M_eraseEPSt13_Rb_tree_nodeIiE+0x5f>
    2198:	48 8b 45 e0          	mov    -0x20(%rbp),%rax
    219c:	48 89 c7             	mov    %rax,%rdi
    219f:	e8 21 06 00 00       	call   27c5 <_ZNSt8_Rb_treeIiiSt9_IdentityIiESt4lessIiESaIiEE8_S_rightEPSt18_Rb_tree_node_base>
    21a4:	48 89 c2             	mov    %rax,%rdx
    21a7:	48 8b 45 e8          	mov    -0x18(%rbp),%rax
    21ab:	48 89 d6             	mov    %rdx,%rsi
    21ae:	48 89 c7             	mov    %rax,%rdi
    21b1:	e8 cc ff ff ff       	call   2182 <_ZNSt8_Rb_treeIiiSt9_IdentityIiESt4lessIiESaIiEE8_M_eraseEPSt13_Rb_tree_nodeIiE>
    21b6:	48 8b 45 e0          	mov    -0x20(%rbp),%rax
    21ba:	48 89 c7             	mov    %rax,%rdi
    21bd:	e8 19 06 00 00       	call   27db <_ZNSt8_Rb_treeIiiSt9_IdentityIiESt4lessIiESaIiEE7_S_leftEPSt18_Rb_tree_node_base>
    21c2:	48 89 45 f8          	mov    %rax,-0x8(%rbp)
    21c6:	48 8b 55 e0          	mov    -0x20(%rbp),%rdx
    21ca:	48 8b 45 e8          	mov    -0x18(%rbp),%rax
    21ce:	48 89 d6             	mov    %rdx,%rsi
    21d1:	48 89 c7             	mov    %rax,%rdi
    21d4:	e8 19 06 00 00       	call   27f2 <_ZNSt8_Rb_treeIiiSt9_IdentityIiESt4lessIiESaIiEE12_M_drop_nodeEPSt13_Rb_tree_nodeIiE>
    21d9:	48 8b 45 f8          	mov    -0x8(%rbp),%rax
    21dd:	48 89 45 e0          	mov    %rax,-0x20(%rbp)
    21e1:	48 83 7d e0 00       	cmpq   $0x0,-0x20(%rbp)
    21e6:	75 b0                	jne    2198 <_ZNSt8_Rb_treeIiiSt9_IdentityIiESt4lessIiESaIiEE8_M_eraseEPSt13_Rb_tree_nodeIiE+0x16>
    21e8:	90                   	nop
    21e9:	90                   	nop
    21ea:	c9                   	leave  
    21eb:	c3                   	ret    

00000000000021ec <_ZNSt8_Rb_treeIiiSt9_IdentityIiESt4lessIiESaIiEE8_M_beginEv>:
    21ec:	f3 0f 1e fa          	endbr64 
    21f0:	55                   	push   %rbp
    21f1:	48 89 e5             	mov    %rsp,%rbp
    21f4:	48 83 ec 10          	sub    $0x10,%rsp
    21f8:	48 89 7d f8          	mov    %rdi,-0x8(%rbp)
    21fc:	48 8b 45 f8          	mov    -0x8(%rbp),%rax
    2200:	48 89 c7             	mov    %rax,%rdi
    2203:	e8 28 06 00 00       	call   2830 <_ZNKSt8_Rb_treeIiiSt9_IdentityIiESt4lessIiESaIiEE9_M_mbeginEv>
    2208:	c9                   	leave  
    2209:	c3                   	ret    

000000000000220a <_ZN9__gnu_cxx17__normal_iteratorIPiSt6vectorIiSaIiEEEC1ERKS1_>:
    220a:	f3 0f 1e fa          	endbr64 
    220e:	55                   	push   %rbp
    220f:	48 89 e5             	mov    %rsp,%rbp
    2212:	48 89 7d f8          	mov    %rdi,-0x8(%rbp)
    2216:	48 89 75 f0          	mov    %rsi,-0x10(%rbp)
    221a:	48 8b 45 f0          	mov    -0x10(%rbp),%rax
    221e:	48 8b 10             	mov    (%rax),%rdx
    2221:	48 8b 45 f8          	mov    -0x8(%rbp),%rax
    2225:	48 89 10             	mov    %rdx,(%rax)
    2228:	90                   	nop
    2229:	5d                   	pop    %rbp
    222a:	c3                   	ret    
    222b:	90                   	nop

000000000000222c <_ZNK9__gnu_cxx17__normal_iteratorIPiSt6vectorIiSaIiEEE4baseEv>:
    222c:	f3 0f 1e fa          	endbr64 
    2230:	55                   	push   %rbp
    2231:	48 89 e5             	mov    %rsp,%rbp
    2234:	48 89 7d f8          	mov    %rdi,-0x8(%rbp)
    2238:	48 8b 45 f8          	mov    -0x8(%rbp),%rax
    223c:	5d                   	pop    %rbp
    223d:	c3                   	ret    

000000000000223e <_ZNSt8_Rb_treeIiiSt9_IdentityIiESt4lessIiESaIiEE16_M_insert_uniqueIRKiEESt4pairISt17_Rb_tree_iteratorIiEbEOT_>:
    223e:	f3 0f 1e fa          	endbr64 
    2242:	55                   	push   %rbp
    2243:	48 89 e5             	mov    %rsp,%rbp
    2246:	48 83 ec 60          	sub    $0x60,%rsp
    224a:	48 89 7d a8          	mov    %rdi,-0x58(%rbp)
    224e:	48 89 75 a0          	mov    %rsi,-0x60(%rbp)
    2252:	64 48 8b 04 25 28 00 	mov    %fs:0x28,%rax
    2259:	00 00 
    225b:	48 89 45 f8          	mov    %rax,-0x8(%rbp)
    225f:	31 c0                	xor    %eax,%eax
    2261:	48 8b 55 a0          	mov    -0x60(%rbp),%rdx
    2265:	48 8d 45 e0          	lea    -0x20(%rbp),%rax
    2269:	48 89 d6             	mov    %rdx,%rsi
    226c:	48 89 c7             	mov    %rax,%rdi
    226f:	e8 6e 07 00 00       	call   29e2 <_ZNKSt9_IdentityIiEclERKi>
    2274:	48 89 c2             	mov    %rax,%rdx
    2277:	48 8b 45 a8          	mov    -0x58(%rbp),%rax
    227b:	48 89 d6             	mov    %rdx,%rsi
    227e:	48 89 c7             	mov    %rax,%rdi
    2281:	e8 c0 05 00 00       	call   2846 <_ZNSt8_Rb_treeIiiSt9_IdentityIiESt4lessIiESaIiEE24_M_get_insert_unique_posERKi>
    2286:	48 89 45 d0          	mov    %rax,-0x30(%rbp)
    228a:	48 89 55 d8          	mov    %rdx,-0x28(%rbp)
    228e:	48 8b 45 d8          	mov    -0x28(%rbp),%rax
    2292:	48 85 c0             	test   %rax,%rax
    2295:	74 66                	je     22fd <_ZNSt8_Rb_treeIiiSt9_IdentityIiESt4lessIiESaIiEE16_M_insert_uniqueIRKiEESt4pairISt17_Rb_tree_iteratorIiEbEOT_+0xbf>
    2297:	48 8b 55 a8          	mov    -0x58(%rbp),%rdx
    229b:	48 8d 45 c0          	lea    -0x40(%rbp),%rax
    229f:	48 89 d6             	mov    %rdx,%rsi
    22a2:	48 89 c7             	mov    %rax,%rdi
    22a5:	e8 4e 07 00 00       	call   29f8 <_ZNSt8_Rb_treeIiiSt9_IdentityIiESt4lessIiESaIiEE11_Alloc_nodeC1ERS5_>
    22aa:	c6 45 bf 01          	movb   $0x1,-0x41(%rbp)
    22ae:	48 8b 45 a0          	mov    -0x60(%rbp),%rax
    22b2:	48 89 c7             	mov    %rax,%rdi
    22b5:	e8 07 03 00 00       	call   25c1 <_ZSt7forwardIRKiEOT_RNSt16remove_referenceIS2_E4typeE>
    22ba:	48 89 c1             	mov    %rax,%rcx
    22bd:	48 8b 55 d8          	mov    -0x28(%rbp),%rdx
    22c1:	48 8b 75 d0          	mov    -0x30(%rbp),%rsi
    22c5:	48 8d 7d c0          	lea    -0x40(%rbp),%rdi
    22c9:	48 8b 45 a8          	mov    -0x58(%rbp),%rax
    22cd:	49 89 f8             	mov    %rdi,%r8
    22d0:	48 89 c7             	mov    %rax,%rdi
    22d3:	e8 3e 07 00 00       	call   2a16 <_ZNSt8_Rb_treeIiiSt9_IdentityIiESt4lessIiESaIiEE10_M_insert_IRKiNS5_11_Alloc_nodeEEESt17_Rb_tree_iteratorIiEPSt18_Rb_tree_node_baseSD_OT_RT0_>
    22d8:	48 89 45 c8          	mov    %rax,-0x38(%rbp)
    22dc:	48 8d 55 bf          	lea    -0x41(%rbp),%rdx
    22e0:	48 8d 4d c8          	lea    -0x38(%rbp),%rcx
    22e4:	48 8d 45 e0          	lea    -0x20(%rbp),%rax
    22e8:	48 89 ce             	mov    %rcx,%rsi
    22eb:	48 89 c7             	mov    %rax,%rdi
    22ee:	e8 3b 08 00 00       	call   2b2e <_ZNSt4pairISt17_Rb_tree_iteratorIiEbEC1IS1_bLb1EEEOT_OT0_>
    22f3:	48 8b 45 e0          	mov    -0x20(%rbp),%rax
    22f7:	48 8b 55 e8          	mov    -0x18(%rbp),%rdx
    22fb:	eb 36                	jmp    2333 <_ZNSt8_Rb_treeIiiSt9_IdentityIiESt4lessIiESaIiEE16_M_insert_uniqueIRKiEESt4pairISt17_Rb_tree_iteratorIiEbEOT_+0xf5>
    22fd:	c6 45 c0 00          	movb   $0x0,-0x40(%rbp)
    2301:	48 8b 55 d0          	mov    -0x30(%rbp),%rdx
    2305:	48 8d 45 c8          	lea    -0x38(%rbp),%rax
    2309:	48 89 d6             	mov    %rdx,%rsi
    230c:	48 89 c7             	mov    %rax,%rdi
    230f:	e8 62 08 00 00       	call   2b76 <_ZNSt17_Rb_tree_iteratorIiEC1EPSt18_Rb_tree_node_base>
    2314:	48 8d 55 c0          	lea    -0x40(%rbp),%rdx
    2318:	48 8d 4d c8          	lea    -0x38(%rbp),%rcx
    231c:	48 8d 45 e0          	lea    -0x20(%rbp),%rax
    2320:	48 89 ce             	mov    %rcx,%rsi
    2323:	48 89 c7             	mov    %rax,%rdi
    2326:	e8 03 08 00 00       	call   2b2e <_ZNSt4pairISt17_Rb_tree_iteratorIiEbEC1IS1_bLb1EEEOT_OT0_>
    232b:	48 8b 45 e0          	mov    -0x20(%rbp),%rax
    232f:	48 8b 55 e8          	mov    -0x18(%rbp),%rdx
    2333:	48 8b 4d f8          	mov    -0x8(%rbp),%rcx
    2337:	64 48 2b 0c 25 28 00 	sub    %fs:0x28,%rcx
    233e:	00 00 
    2340:	74 05                	je     2347 <_ZNSt8_Rb_treeIiiSt9_IdentityIiESt4lessIiESaIiEE16_M_insert_uniqueIRKiEESt4pairISt17_Rb_tree_iteratorIiEbEOT_+0x109>
    2342:	e8 d9 ee ff ff       	call   1220 <__stack_chk_fail@plt>
    2347:	c9                   	leave  
    2348:	c3                   	ret    
    2349:	90                   	nop

000000000000234a <_ZNSt4pairISt23_Rb_tree_const_iteratorIiEbEC1IRSt17_Rb_tree_iteratorIiERbLb1EEEOT_OT0_>:
    234a:	f3 0f 1e fa          	endbr64 
    234e:	55                   	push   %rbp
    234f:	48 89 e5             	mov    %rsp,%rbp
    2352:	53                   	push   %rbx
    2353:	48 83 ec 28          	sub    $0x28,%rsp
    2357:	48 89 7d e8          	mov    %rdi,-0x18(%rbp)
    235b:	48 89 75 e0          	mov    %rsi,-0x20(%rbp)
    235f:	48 89 55 d8          	mov    %rdx,-0x28(%rbp)
    2363:	48 8b 5d e8          	mov    -0x18(%rbp),%rbx
    2367:	48 8b 45 e0          	mov    -0x20(%rbp),%rax
    236b:	48 89 c7             	mov    %rax,%rdi
    236e:	e8 21 08 00 00       	call   2b94 <_ZSt7forwardIRSt17_Rb_tree_iteratorIiEEOT_RNSt16remove_referenceIS3_E4typeE>
    2373:	48 89 c6             	mov    %rax,%rsi
    2376:	48 89 df             	mov    %rbx,%rdi
    2379:	e8 f4 00 00 00       	call   2472 <_ZNSt23_Rb_tree_const_iteratorIiEC1ERKSt17_Rb_tree_iteratorIiE>
    237e:	48 8b 45 d8          	mov    -0x28(%rbp),%rax
    2382:	48 89 c7             	mov    %rax,%rdi
    2385:	e8 1c 08 00 00       	call   2ba6 <_ZSt7forwardIRbEOT_RNSt16remove_referenceIS1_E4typeE>
    238a:	0f b6 10             	movzbl (%rax),%edx
    238d:	48 8b 45 e8          	mov    -0x18(%rbp),%rax
    2391:	88 50 08             	mov    %dl,0x8(%rax)
    2394:	90                   	nop
    2395:	48 8b 5d f8          	mov    -0x8(%rbp),%rbx
    2399:	c9                   	leave  
    239a:	c3                   	ret    
    239b:	90                   	nop

000000000000239c <_ZNSt8_Rb_treeIiiSt9_IdentityIiESt4lessIiESaIiEE4findERKi>:
    239c:	f3 0f 1e fa          	endbr64 
    23a0:	55                   	push   %rbp
    23a1:	48 89 e5             	mov    %rsp,%rbp
    23a4:	53                   	push   %rbx
    23a5:	48 83 ec 38          	sub    $0x38,%rsp
    23a9:	48 89 7d c8          	mov    %rdi,-0x38(%rbp)
    23ad:	48 89 75 c0          	mov    %rsi,-0x40(%rbp)
    23b1:	64 48 8b 04 25 28 00 	mov    %fs:0x28,%rax
    23b8:	00 00 
    23ba:	48 89 45 e8          	mov    %rax,-0x18(%rbp)
    23be:	31 c0                	xor    %eax,%eax
    23c0:	48 8b 45 c8          	mov    -0x38(%rbp),%rax
    23c4:	48 89 c7             	mov    %rax,%rdi
    23c7:	e8 ec 07 00 00       	call   2bb8 <_ZNSt8_Rb_treeIiiSt9_IdentityIiESt4lessIiESaIiEE6_M_endEv>
    23cc:	48 89 c3             	mov    %rax,%rbx
    23cf:	48 8b 45 c8          	mov    -0x38(%rbp),%rax
    23d3:	48 89 c7             	mov    %rax,%rdi
    23d6:	e8 11 fe ff ff       	call   21ec <_ZNSt8_Rb_treeIiiSt9_IdentityIiESt4lessIiESaIiEE8_M_beginEv>
    23db:	48 89 c6             	mov    %rax,%rsi
    23de:	48 8b 55 c0          	mov    -0x40(%rbp),%rdx
    23e2:	48 8b 45 c8          	mov    -0x38(%rbp),%rax
    23e6:	48 89 d1             	mov    %rdx,%rcx
    23e9:	48 89 da             	mov    %rbx,%rdx
    23ec:	48 89 c7             	mov    %rax,%rdi
    23ef:	e8 da 07 00 00       	call   2bce <_ZNSt8_Rb_treeIiiSt9_IdentityIiESt4lessIiESaIiEE14_M_lower_boundEPSt13_Rb_tree_nodeIiEPSt18_Rb_tree_node_baseRKi>
    23f4:	48 89 45 d8          	mov    %rax,-0x28(%rbp)
    23f8:	48 8b 45 c8          	mov    -0x38(%rbp),%rax
    23fc:	48 89 c7             	mov    %rax,%rdi
    23ff:	e8 86 08 00 00       	call   2c8a <_ZNSt8_Rb_treeIiiSt9_IdentityIiESt4lessIiESaIiEE3endEv>
    2404:	48 89 45 e0          	mov    %rax,-0x20(%rbp)
    2408:	48 8d 55 e0          	lea    -0x20(%rbp),%rdx
    240c:	48 8d 45 d8          	lea    -0x28(%rbp),%rax
    2410:	48 89 d6             	mov    %rdx,%rsi
    2413:	48 89 c7             	mov    %rax,%rdi
    2416:	e8 bf 08 00 00       	call   2cda <_ZSteqRKSt17_Rb_tree_iteratorIiES2_>
    241b:	84 c0                	test   %al,%al
    241d:	75 26                	jne    2445 <_ZNSt8_Rb_treeIiiSt9_IdentityIiESt4lessIiESaIiEE4findERKi+0xa9>
    241f:	48 8b 5d c8          	mov    -0x38(%rbp),%rbx
    2423:	48 8b 45 d8          	mov    -0x28(%rbp),%rax
    2427:	48 89 c7             	mov    %rax,%rdi
    242a:	e8 d1 08 00 00       	call   2d00 <_ZNSt8_Rb_treeIiiSt9_IdentityIiESt4lessIiESaIiEE6_S_keyEPKSt18_Rb_tree_node_base>
    242f:	48 89 c2             	mov    %rax,%rdx
    2432:	48 8b 45 c0          	mov    -0x40(%rbp),%rax
    2436:	48 89 c6             	mov    %rax,%rsi
    2439:	48 89 df             	mov    %rbx,%rdi
    243c:	e8 dd 08 00 00       	call   2d1e <_ZNKSt4lessIiEclERKiS2_>
    2441:	84 c0                	test   %al,%al
    2443:	74 0e                	je     2453 <_ZNSt8_Rb_treeIiiSt9_IdentityIiESt4lessIiESaIiEE4findERKi+0xb7>
    2445:	48 8b 45 c8          	mov    -0x38(%rbp),%rax
    2449:	48 89 c7             	mov    %rax,%rdi
    244c:	e8 39 08 00 00       	call   2c8a <_ZNSt8_Rb_treeIiiSt9_IdentityIiESt4lessIiESaIiEE3endEv>
    2451:	eb 04                	jmp    2457 <_ZNSt8_Rb_treeIiiSt9_IdentityIiESt4lessIiESaIiEE4findERKi+0xbb>
    2453:	48 8b 45 d8          	mov    -0x28(%rbp),%rax
    2457:	48 8b 55 e8          	mov    -0x18(%rbp),%rdx
    245b:	64 48 2b 14 25 28 00 	sub    %fs:0x28,%rdx
    2462:	00 00 
    2464:	74 05                	je     246b <_ZNSt8_Rb_treeIiiSt9_IdentityIiESt4lessIiESaIiEE4findERKi+0xcf>
    2466:	e8 b5 ed ff ff       	call   1220 <__stack_chk_fail@plt>
    246b:	48 8b 5d f8          	mov    -0x8(%rbp),%rbx
    246f:	c9                   	leave  
    2470:	c3                   	ret    
    2471:	90                   	nop

0000000000002472 <_ZNSt23_Rb_tree_const_iteratorIiEC1ERKSt17_Rb_tree_iteratorIiE>:
    2472:	f3 0f 1e fa          	endbr64 
    2476:	55                   	push   %rbp
    2477:	48 89 e5             	mov    %rsp,%rbp
    247a:	48 89 7d f8          	mov    %rdi,-0x8(%rbp)
    247e:	48 89 75 f0          	mov    %rsi,-0x10(%rbp)
    2482:	48 8b 45 f0          	mov    -0x10(%rbp),%rax
    2486:	48 8b 10             	mov    (%rax),%rdx
    2489:	48 8b 45 f8          	mov    -0x8(%rbp),%rax
    248d:	48 89 10             	mov    %rdx,(%rax)
    2490:	90                   	nop
    2491:	5d                   	pop    %rbp
    2492:	c3                   	ret    
    2493:	90                   	nop

0000000000002494 <_ZNKSt8_Rb_treeIiiSt9_IdentityIiESt4lessIiESaIiEE3endEv>:
    2494:	f3 0f 1e fa          	endbr64 
    2498:	55                   	push   %rbp
    2499:	48 89 e5             	mov    %rsp,%rbp
    249c:	48 83 ec 20          	sub    $0x20,%rsp
    24a0:	48 89 7d e8          	mov    %rdi,-0x18(%rbp)
    24a4:	64 48 8b 04 25 28 00 	mov    %fs:0x28,%rax
    24ab:	00 00 
    24ad:	48 89 45 f8          	mov    %rax,-0x8(%rbp)
    24b1:	31 c0                	xor    %eax,%eax
    24b3:	48 8b 45 e8          	mov    -0x18(%rbp),%rax
    24b7:	48 8d 50 08          	lea    0x8(%rax),%rdx
    24bb:	48 8d 45 f0          	lea    -0x10(%rbp),%rax
    24bf:	48 89 d6             	mov    %rdx,%rsi
    24c2:	48 89 c7             	mov    %rax,%rdi
    24c5:	e8 7c 08 00 00       	call   2d46 <_ZNSt23_Rb_tree_const_iteratorIiEC1EPKSt18_Rb_tree_node_base>
    24ca:	48 8b 45 f0          	mov    -0x10(%rbp),%rax
    24ce:	48 8b 55 f8          	mov    -0x8(%rbp),%rdx
    24d2:	64 48 2b 14 25 28 00 	sub    %fs:0x28,%rdx
    24d9:	00 00 
    24db:	74 05                	je     24e2 <_ZNKSt8_Rb_treeIiiSt9_IdentityIiESt4lessIiESaIiEE3endEv+0x4e>
    24dd:	e8 3e ed ff ff       	call   1220 <__stack_chk_fail@plt>
    24e2:	c9                   	leave  
    24e3:	c3                   	ret    

00000000000024e4 <_ZNKSt8_Rb_treeIiiSt9_IdentityIiESt4lessIiESaIiEE5beginEv>:
    24e4:	f3 0f 1e fa          	endbr64 
    24e8:	55                   	push   %rbp
    24e9:	48 89 e5             	mov    %rsp,%rbp
    24ec:	48 83 ec 20          	sub    $0x20,%rsp
    24f0:	48 89 7d e8          	mov    %rdi,-0x18(%rbp)
    24f4:	64 48 8b 04 25 28 00 	mov    %fs:0x28,%rax
    24fb:	00 00 
    24fd:	48 89 45 f8          	mov    %rax,-0x8(%rbp)
    2501:	31 c0                	xor    %eax,%eax
    2503:	48 8b 45 e8          	mov    -0x18(%rbp),%rax
    2507:	48 8b 50 18          	mov    0x18(%rax),%rdx
    250b:	48 8d 45 f0          	lea    -0x10(%rbp),%rax
    250f:	48 89 d6             	mov    %rdx,%rsi
    2512:	48 89 c7             	mov    %rax,%rdi
    2515:	e8 2c 08 00 00       	call   2d46 <_ZNSt23_Rb_tree_const_iteratorIiEC1EPKSt18_Rb_tree_node_base>
    251a:	48 8b 45 f0          	mov    -0x10(%rbp),%rax
    251e:	48 8b 55 f8          	mov    -0x8(%rbp),%rdx
    2522:	64 48 2b 14 25 28 00 	sub    %fs:0x28,%rdx
    2529:	00 00 
    252b:	74 05                	je     2532 <_ZNKSt8_Rb_treeIiiSt9_IdentityIiESt4lessIiESaIiEE5beginEv+0x4e>
    252d:	e8 ee ec ff ff       	call   1220 <__stack_chk_fail@plt>
    2532:	c9                   	leave  
    2533:	c3                   	ret    

0000000000002534 <_ZNKSt13_Rb_tree_nodeIiE9_M_valptrEv>:
    2534:	f3 0f 1e fa          	endbr64 
    2538:	55                   	push   %rbp
    2539:	48 89 e5             	mov    %rsp,%rbp
    253c:	48 83 ec 10          	sub    $0x10,%rsp
    2540:	48 89 7d f8          	mov    %rdi,-0x8(%rbp)
    2544:	48 8b 45 f8          	mov    -0x8(%rbp),%rax
    2548:	48 83 c0 20          	add    $0x20,%rax
    254c:	48 89 c7             	mov    %rax,%rdi
    254f:	e8 10 08 00 00       	call   2d64 <_ZNK9__gnu_cxx16__aligned_membufIiE6_M_ptrEv>
    2554:	c9                   	leave  
    2555:	c3                   	ret    

0000000000002556 <_ZN9__gnu_cxx13new_allocatorIiEC1Ev>:
    2556:	f3 0f 1e fa          	endbr64 
    255a:	55                   	push   %rbp
    255b:	48 89 e5             	mov    %rsp,%rbp
    255e:	48 89 7d f8          	mov    %rdi,-0x8(%rbp)
    2562:	90                   	nop
    2563:	5d                   	pop    %rbp
    2564:	c3                   	ret    

0000000000002565 <_ZNSt16allocator_traitsISaIiEE10deallocateERS0_Pim>:
    2565:	f3 0f 1e fa          	endbr64 
    2569:	55                   	push   %rbp
    256a:	48 89 e5             	mov    %rsp,%rbp
    256d:	48 83 ec 20          	sub    $0x20,%rsp
    2571:	48 89 7d f8          	mov    %rdi,-0x8(%rbp)
    2575:	48 89 75 f0          	mov    %rsi,-0x10(%rbp)
    2579:	48 89 55 e8          	mov    %rdx,-0x18(%rbp)
    257d:	48 8b 55 e8          	mov    -0x18(%rbp),%rdx
    2581:	48 8b 4d f0          	mov    -0x10(%rbp),%rcx
    2585:	48 8b 45 f8          	mov    -0x8(%rbp),%rax
    2589:	48 89 ce             	mov    %rcx,%rsi
    258c:	48 89 c7             	mov    %rax,%rdi
    258f:	e8 ee 07 00 00       	call   2d82 <_ZN9__gnu_cxx13new_allocatorIiE10deallocateEPim>
    2594:	90                   	nop
    2595:	c9                   	leave  
    2596:	c3                   	ret    

0000000000002597 <_ZSt8_DestroyIPiEvT_S1_>:
    2597:	f3 0f 1e fa          	endbr64 
    259b:	55                   	push   %rbp
    259c:	48 89 e5             	mov    %rsp,%rbp
    259f:	48 83 ec 10          	sub    $0x10,%rsp
    25a3:	48 89 7d f8          	mov    %rdi,-0x8(%rbp)
    25a7:	48 89 75 f0          	mov    %rsi,-0x10(%rbp)
    25ab:	48 8b 55 f0          	mov    -0x10(%rbp),%rdx
    25af:	48 8b 45 f8          	mov    -0x8(%rbp),%rax
    25b3:	48 89 d6             	mov    %rdx,%rsi
    25b6:	48 89 c7             	mov    %rax,%rdi
    25b9:	e8 f9 07 00 00       	call   2db7 <_ZNSt12_Destroy_auxILb1EE9__destroyIPiEEvT_S3_>
    25be:	90                   	nop
    25bf:	c9                   	leave  
    25c0:	c3                   	ret    

00000000000025c1 <_ZSt7forwardIRKiEOT_RNSt16remove_referenceIS2_E4typeE>:
    25c1:	f3 0f 1e fa          	endbr64 
    25c5:	55                   	push   %rbp
    25c6:	48 89 e5             	mov    %rsp,%rbp
    25c9:	48 89 7d f8          	mov    %rdi,-0x8(%rbp)
    25cd:	48 8b 45 f8          	mov    -0x8(%rbp),%rax
    25d1:	5d                   	pop    %rbp
    25d2:	c3                   	ret    
    25d3:	90                   	nop

00000000000025d4 <_ZN9__gnu_cxx13new_allocatorIiE9constructIiJRKiEEEvPT_DpOT0_>:
    25d4:	f3 0f 1e fa          	endbr64 
    25d8:	55                   	push   %rbp
    25d9:	48 89 e5             	mov    %rsp,%rbp
    25dc:	53                   	push   %rbx
    25dd:	48 83 ec 28          	sub    $0x28,%rsp
    25e1:	48 89 7d e8          	mov    %rdi,-0x18(%rbp)
    25e5:	48 89 75 e0          	mov    %rsi,-0x20(%rbp)
    25e9:	48 89 55 d8          	mov    %rdx,-0x28(%rbp)
    25ed:	48 8b 45 d8          	mov    -0x28(%rbp),%rax
    25f1:	48 89 c7             	mov    %rax,%rdi
    25f4:	e8 c8 ff ff ff       	call   25c1 <_ZSt7forwardIRKiEOT_RNSt16remove_referenceIS2_E4typeE>
    25f9:	8b 18                	mov    (%rax),%ebx
    25fb:	48 8b 45 e0          	mov    -0x20(%rbp),%rax
    25ff:	48 89 c6             	mov    %rax,%rsi
    2602:	bf 04 00 00 00       	mov    $0x4,%edi
    2607:	e8 c8 f1 ff ff       	call   17d4 <_ZnwmPv>
    260c:	89 18                	mov    %ebx,(%rax)
    260e:	90                   	nop
    260f:	48 8b 5d f8          	mov    -0x8(%rbp),%rbx
    2613:	c9                   	leave  
    2614:	c3                   	ret    
    2615:	90                   	nop

0000000000002616 <_ZNKSt6vectorIiSaIiEE12_M_check_lenEmPKc>:
    2616:	f3 0f 1e fa          	endbr64 
    261a:	55                   	push   %rbp
    261b:	48 89 e5             	mov    %rsp,%rbp
    261e:	53                   	push   %rbx
    261f:	48 83 ec 48          	sub    $0x48,%rsp
    2623:	48 89 7d c8          	mov    %rdi,-0x38(%rbp)
    2627:	48 89 75 c0          	mov    %rsi,-0x40(%rbp)
    262b:	48 89 55 b8          	mov    %rdx,-0x48(%rbp)
    262f:	64 48 8b 04 25 28 00 	mov    %fs:0x28,%rax
    2636:	00 00 
    2638:	48 89 45 e8          	mov    %rax,-0x18(%rbp)
    263c:	31 c0                	xor    %eax,%eax
    263e:	48 8b 45 c8          	mov    -0x38(%rbp),%rax
    2642:	48 89 c7             	mov    %rax,%rdi
    2645:	e8 80 07 00 00       	call   2dca <_ZNKSt6vectorIiSaIiEE8max_sizeEv>
    264a:	48 89 c3             	mov    %rax,%rbx
    264d:	48 8b 45 c8          	mov    -0x38(%rbp),%rax
    2651:	48 89 c7             	mov    %rax,%rdi
    2654:	e8 97 07 00 00       	call   2df0 <_ZNKSt6vectorIiSaIiEE4sizeEv>
    2659:	48 29 c3             	sub    %rax,%rbx
    265c:	48 89 da             	mov    %rbx,%rdx
    265f:	48 8b 45 c0          	mov    -0x40(%rbp),%rax
    2663:	48 39 c2             	cmp    %rax,%rdx
    2666:	0f 92 c0             	setb   %al
    2669:	84 c0                	test   %al,%al
    266b:	74 0c                	je     2679 <_ZNKSt6vectorIiSaIiEE12_M_check_lenEmPKc+0x63>
    266d:	48 8b 45 b8          	mov    -0x48(%rbp),%rax
    2671:	48 89 c7             	mov    %rax,%rdi
    2674:	e8 17 eb ff ff       	call   1190 <_ZSt20__throw_length_errorPKc@plt>
    2679:	48 8b 45 c8          	mov    -0x38(%rbp),%rax
    267d:	48 89 c7             	mov    %rax,%rdi
    2680:	e8 6b 07 00 00       	call   2df0 <_ZNKSt6vectorIiSaIiEE4sizeEv>
    2685:	48 89 c3             	mov    %rax,%rbx
    2688:	48 8b 45 c8          	mov    -0x38(%rbp),%rax
    268c:	48 89 c7             	mov    %rax,%rdi
    268f:	e8 5c 07 00 00       	call   2df0 <_ZNKSt6vectorIiSaIiEE4sizeEv>
    2694:	48 89 45 d8          	mov    %rax,-0x28(%rbp)
    2698:	48 8d 55 c0          	lea    -0x40(%rbp),%rdx
    269c:	48 8d 45 d8          	lea    -0x28(%rbp),%rax
    26a0:	48 89 d6             	mov    %rdx,%rsi
    26a3:	48 89 c7             	mov    %rax,%rdi
    26a6:	e8 b8 f2 ff ff       	call   1963 <_ZSt3maxImERKT_S2_S2_>
    26ab:	48 8b 00             	mov    (%rax),%rax
    26ae:	48 01 d8             	add    %rbx,%rax
    26b1:	48 89 45 e0          	mov    %rax,-0x20(%rbp)
    26b5:	48 8b 45 c8          	mov    -0x38(%rbp),%rax
    26b9:	48 89 c7             	mov    %rax,%rdi
    26bc:	e8 2f 07 00 00       	call   2df0 <_ZNKSt6vectorIiSaIiEE4sizeEv>
    26c1:	48 39 45 e0          	cmp    %rax,-0x20(%rbp)
    26c5:	72 12                	jb     26d9 <_ZNKSt6vectorIiSaIiEE12_M_check_lenEmPKc+0xc3>
    26c7:	48 8b 45 c8          	mov    -0x38(%rbp),%rax
    26cb:	48 89 c7             	mov    %rax,%rdi
    26ce:	e8 f7 06 00 00       	call   2dca <_ZNKSt6vectorIiSaIiEE8max_sizeEv>
    26d3:	48 39 45 e0          	cmp    %rax,-0x20(%rbp)
    26d7:	76 0e                	jbe    26e7 <_ZNKSt6vectorIiSaIiEE12_M_check_lenEmPKc+0xd1>
    26d9:	48 8b 45 c8          	mov    -0x38(%rbp),%rax
    26dd:	48 89 c7             	mov    %rax,%rdi
    26e0:	e8 e5 06 00 00       	call   2dca <_ZNKSt6vectorIiSaIiEE8max_sizeEv>
    26e5:	eb 04                	jmp    26eb <_ZNKSt6vectorIiSaIiEE12_M_check_lenEmPKc+0xd5>
    26e7:	48 8b 45 e0          	mov    -0x20(%rbp),%rax
    26eb:	48 8b 55 e8          	mov    -0x18(%rbp),%rdx
    26ef:	64 48 2b 14 25 28 00 	sub    %fs:0x28,%rdx
    26f6:	00 00 
    26f8:	74 05                	je     26ff <_ZNKSt6vectorIiSaIiEE12_M_check_lenEmPKc+0xe9>
    26fa:	e8 21 eb ff ff       	call   1220 <__stack_chk_fail@plt>
    26ff:	48 8b 5d f8          	mov    -0x8(%rbp),%rbx
    2703:	c9                   	leave  
    2704:	c3                   	ret    

0000000000002705 <_ZN9__gnu_cxxmiIPiSt6vectorIiSaIiEEEENS_17__normal_iteratorIT_T0_E15difference_typeERKS8_SB_>:
    2705:	f3 0f 1e fa          	endbr64 
    2709:	55                   	push   %rbp
    270a:	48 89 e5             	mov    %rsp,%rbp
    270d:	53                   	push   %rbx
    270e:	48 83 ec 18          	sub    $0x18,%rsp
    2712:	48 89 7d e8          	mov    %rdi,-0x18(%rbp)
    2716:	48 89 75 e0          	mov    %rsi,-0x20(%rbp)
    271a:	48 8b 45 e8          	mov    -0x18(%rbp),%rax
    271e:	48 89 c7             	mov    %rax,%rdi
    2721:	e8 06 fb ff ff       	call   222c <_ZNK9__gnu_cxx17__normal_iteratorIPiSt6vectorIiSaIiEEE4baseEv>
    2726:	48 8b 18             	mov    (%rax),%rbx
    2729:	48 8b 45 e0          	mov    -0x20(%rbp),%rax
    272d:	48 89 c7             	mov    %rax,%rdi
    2730:	e8 f7 fa ff ff       	call   222c <_ZNK9__gnu_cxx17__normal_iteratorIPiSt6vectorIiSaIiEEE4baseEv>
    2735:	48 8b 10             	mov    (%rax),%rdx
    2738:	48 89 d8             	mov    %rbx,%rax
    273b:	48 29 d0             	sub    %rdx,%rax
    273e:	48 c1 f8 02          	sar    $0x2,%rax
    2742:	48 8b 5d f8          	mov    -0x8(%rbp),%rbx
    2746:	c9                   	leave  
    2747:	c3                   	ret    

0000000000002748 <_ZNSt12_Vector_baseIiSaIiEE11_M_allocateEm>:
    2748:	f3 0f 1e fa          	endbr64 
    274c:	55                   	push   %rbp
    274d:	48 89 e5             	mov    %rsp,%rbp
    2750:	48 83 ec 10          	sub    $0x10,%rsp
    2754:	48 89 7d f8          	mov    %rdi,-0x8(%rbp)
    2758:	48 89 75 f0          	mov    %rsi,-0x10(%rbp)
    275c:	48 83 7d f0 00       	cmpq   $0x0,-0x10(%rbp)
    2761:	74 15                	je     2778 <_ZNSt12_Vector_baseIiSaIiEE11_M_allocateEm+0x30>
    2763:	48 8b 45 f8          	mov    -0x8(%rbp),%rax
    2767:	48 8b 55 f0          	mov    -0x10(%rbp),%rdx
    276b:	48 89 d6             	mov    %rdx,%rsi
    276e:	48 89 c7             	mov    %rax,%rdi
    2771:	e8 a1 06 00 00       	call   2e17 <_ZNSt16allocator_traitsISaIiEE8allocateERS0_m>
    2776:	eb 05                	jmp    277d <_ZNSt12_Vector_baseIiSaIiEE11_M_allocateEm+0x35>
    2778:	b8 00 00 00 00       	mov    $0x0,%eax
    277d:	c9                   	leave  
    277e:	c3                   	ret    

000000000000277f <_ZNSt6vectorIiSaIiEE11_S_relocateEPiS2_S2_RS0_>:
    277f:	f3 0f 1e fa          	endbr64 
    2783:	55                   	push   %rbp
    2784:	48 89 e5             	mov    %rsp,%rbp
    2787:	48 83 ec 20          	sub    $0x20,%rsp
    278b:	48 89 7d f8          	mov    %rdi,-0x8(%rbp)
    278f:	48 89 75 f0          	mov    %rsi,-0x10(%rbp)
    2793:	48 89 55 e8          	mov    %rdx,-0x18(%rbp)
    2797:	48 89 4d e0          	mov    %rcx,-0x20(%rbp)
    279b:	48 8b 4d e0          	mov    -0x20(%rbp),%rcx
    279f:	48 8b 55 e8          	mov    -0x18(%rbp),%rdx
    27a3:	48 8b 75 f0          	mov    -0x10(%rbp),%rsi
    27a7:	48 8b 45 f8          	mov    -0x8(%rbp),%rax
    27ab:	48 89 c7             	mov    %rax,%rdi
    27ae:	e8 92 06 00 00       	call   2e45 <_ZNSt6vectorIiSaIiEE14_S_do_relocateEPiS2_S2_RS0_St17integral_constantIbLb1EE>
    27b3:	c9                   	leave  
    27b4:	c3                   	ret    
    27b5:	90                   	nop

00000000000027b6 <_ZN9__gnu_cxx13new_allocatorISt13_Rb_tree_nodeIiEEC1Ev>:
    27b6:	f3 0f 1e fa          	endbr64 
    27ba:	55                   	push   %rbp
    27bb:	48 89 e5             	mov    %rsp,%rbp
    27be:	48 89 7d f8          	mov    %rdi,-0x8(%rbp)
    27c2:	90                   	nop
    27c3:	5d                   	pop    %rbp
    27c4:	c3                   	ret    

00000000000027c5 <_ZNSt8_Rb_treeIiiSt9_IdentityIiESt4lessIiESaIiEE8_S_rightEPSt18_Rb_tree_node_base>:
    27c5:	f3 0f 1e fa          	endbr64 
    27c9:	55                   	push   %rbp
    27ca:	48 89 e5             	mov    %rsp,%rbp
    27cd:	48 89 7d f8          	mov    %rdi,-0x8(%rbp)
    27d1:	48 8b 45 f8          	mov    -0x8(%rbp),%rax
    27d5:	48 8b 40 18          	mov    0x18(%rax),%rax
    27d9:	5d                   	pop    %rbp
    27da:	c3                   	ret    

00000000000027db <_ZNSt8_Rb_treeIiiSt9_IdentityIiESt4lessIiESaIiEE7_S_leftEPSt18_Rb_tree_node_base>:
    27db:	f3 0f 1e fa          	endbr64 
    27df:	55                   	push   %rbp
    27e0:	48 89 e5             	mov    %rsp,%rbp
    27e3:	48 89 7d f8          	mov    %rdi,-0x8(%rbp)
    27e7:	48 8b 45 f8          	mov    -0x8(%rbp),%rax
    27eb:	48 8b 40 10          	mov    0x10(%rax),%rax
    27ef:	5d                   	pop    %rbp
    27f0:	c3                   	ret    
    27f1:	90                   	nop

00000000000027f2 <_ZNSt8_Rb_treeIiiSt9_IdentityIiESt4lessIiESaIiEE12_M_drop_nodeEPSt13_Rb_tree_nodeIiE>:
    27f2:	f3 0f 1e fa          	endbr64 
    27f6:	55                   	push   %rbp
    27f7:	48 89 e5             	mov    %rsp,%rbp
    27fa:	48 83 ec 10          	sub    $0x10,%rsp
    27fe:	48 89 7d f8          	mov    %rdi,-0x8(%rbp)
    2802:	48 89 75 f0          	mov    %rsi,-0x10(%rbp)
    2806:	48 8b 55 f0          	mov    -0x10(%rbp),%rdx
    280a:	48 8b 45 f8          	mov    -0x8(%rbp),%rax
    280e:	48 89 d6             	mov    %rdx,%rsi
    2811:	48 89 c7             	mov    %rax,%rdi
    2814:	e8 63 06 00 00       	call   2e7c <_ZNSt8_Rb_treeIiiSt9_IdentityIiESt4lessIiESaIiEE15_M_destroy_nodeEPSt13_Rb_tree_nodeIiE>
    2819:	48 8b 55 f0          	mov    -0x10(%rbp),%rdx
    281d:	48 8b 45 f8          	mov    -0x8(%rbp),%rax
    2821:	48 89 d6             	mov    %rdx,%rsi
    2824:	48 89 c7             	mov    %rax,%rdi
    2827:	e8 92 06 00 00       	call   2ebe <_ZNSt8_Rb_treeIiiSt9_IdentityIiESt4lessIiESaIiEE11_M_put_nodeEPSt13_Rb_tree_nodeIiE>
    282c:	90                   	nop
    282d:	c9                   	leave  
    282e:	c3                   	ret    
    282f:	90                   	nop

0000000000002830 <_ZNKSt8_Rb_treeIiiSt9_IdentityIiESt4lessIiESaIiEE9_M_mbeginEv>:
    2830:	f3 0f 1e fa          	endbr64 
    2834:	55                   	push   %rbp
    2835:	48 89 e5             	mov    %rsp,%rbp
    2838:	48 89 7d f8          	mov    %rdi,-0x8(%rbp)
    283c:	48 8b 45 f8          	mov    -0x8(%rbp),%rax
    2840:	48 8b 40 10          	mov    0x10(%rax),%rax
    2844:	5d                   	pop    %rbp
    2845:	c3                   	ret    

0000000000002846 <_ZNSt8_Rb_treeIiiSt9_IdentityIiESt4lessIiESaIiEE24_M_get_insert_unique_posERKi>:
    2846:	f3 0f 1e fa          	endbr64 
    284a:	55                   	push   %rbp
    284b:	48 89 e5             	mov    %rsp,%rbp
    284e:	53                   	push   %rbx
    284f:	48 83 ec 68          	sub    $0x68,%rsp
    2853:	48 89 7d 98          	mov    %rdi,-0x68(%rbp)
    2857:	48 89 75 90          	mov    %rsi,-0x70(%rbp)
    285b:	64 48 8b 04 25 28 00 	mov    %fs:0x28,%rax
    2862:	00 00 
    2864:	48 89 45 e8          	mov    %rax,-0x18(%rbp)
    2868:	31 c0                	xor    %eax,%eax
    286a:	48 8b 45 98          	mov    -0x68(%rbp),%rax
    286e:	48 89 c7             	mov    %rax,%rdi
    2871:	e8 76 f9 ff ff       	call   21ec <_ZNSt8_Rb_treeIiiSt9_IdentityIiESt4lessIiESaIiEE8_M_beginEv>
    2876:	48 89 45 b0          	mov    %rax,-0x50(%rbp)
    287a:	48 8b 45 98          	mov    -0x68(%rbp),%rax
    287e:	48 89 c7             	mov    %rax,%rdi
    2881:	e8 32 03 00 00       	call   2bb8 <_ZNSt8_Rb_treeIiiSt9_IdentityIiESt4lessIiESaIiEE6_M_endEv>
    2886:	48 89 45 b8          	mov    %rax,-0x48(%rbp)
    288a:	c6 45 af 01          	movb   $0x1,-0x51(%rbp)
    288e:	eb 51                	jmp    28e1 <_ZNSt8_Rb_treeIiiSt9_IdentityIiESt4lessIiESaIiEE24_M_get_insert_unique_posERKi+0x9b>
    2890:	48 8b 45 b0          	mov    -0x50(%rbp),%rax
    2894:	48 89 45 b8          	mov    %rax,-0x48(%rbp)
    2898:	48 8b 5d 98          	mov    -0x68(%rbp),%rbx
    289c:	48 8b 45 b0          	mov    -0x50(%rbp),%rax
    28a0:	48 89 c7             	mov    %rax,%rdi
    28a3:	e8 50 06 00 00       	call   2ef8 <_ZNSt8_Rb_treeIiiSt9_IdentityIiESt4lessIiESaIiEE6_S_keyEPKSt13_Rb_tree_nodeIiE>
    28a8:	48 89 c2             	mov    %rax,%rdx
    28ab:	48 8b 45 90          	mov    -0x70(%rbp),%rax
    28af:	48 89 c6             	mov    %rax,%rsi
    28b2:	48 89 df             	mov    %rbx,%rdi
    28b5:	e8 64 04 00 00       	call   2d1e <_ZNKSt4lessIiEclERKiS2_>
    28ba:	88 45 af             	mov    %al,-0x51(%rbp)
    28bd:	80 7d af 00          	cmpb   $0x0,-0x51(%rbp)
    28c1:	74 0e                	je     28d1 <_ZNSt8_Rb_treeIiiSt9_IdentityIiESt4lessIiESaIiEE24_M_get_insert_unique_posERKi+0x8b>
    28c3:	48 8b 45 b0          	mov    -0x50(%rbp),%rax
    28c7:	48 89 c7             	mov    %rax,%rdi
    28ca:	e8 0c ff ff ff       	call   27db <_ZNSt8_Rb_treeIiiSt9_IdentityIiESt4lessIiESaIiEE7_S_leftEPSt18_Rb_tree_node_base>
    28cf:	eb 0c                	jmp    28dd <_ZNSt8_Rb_treeIiiSt9_IdentityIiESt4lessIiESaIiEE24_M_get_insert_unique_posERKi+0x97>
    28d1:	48 8b 45 b0          	mov    -0x50(%rbp),%rax
    28d5:	48 89 c7             	mov    %rax,%rdi
    28d8:	e8 e8 fe ff ff       	call   27c5 <_ZNSt8_Rb_treeIiiSt9_IdentityIiESt4lessIiESaIiEE8_S_rightEPSt18_Rb_tree_node_base>
    28dd:	48 89 45 b0          	mov    %rax,-0x50(%rbp)
    28e1:	48 8b 45 b0          	mov    -0x50(%rbp),%rax
    28e5:	48 85 c0             	test   %rax,%rax
    28e8:	75 a6                	jne    2890 <_ZNSt8_Rb_treeIiiSt9_IdentityIiESt4lessIiESaIiEE24_M_get_insert_unique_posERKi+0x4a>
    28ea:	48 8b 55 b8          	mov    -0x48(%rbp),%rdx
    28ee:	48 8d 45 c0          	lea    -0x40(%rbp),%rax
    28f2:	48 89 d6             	mov    %rdx,%rsi
    28f5:	48 89 c7             	mov    %rax,%rdi
    28f8:	e8 79 02 00 00       	call   2b76 <_ZNSt17_Rb_tree_iteratorIiEC1EPSt18_Rb_tree_node_base>
    28fd:	80 7d af 00          	cmpb   $0x0,-0x51(%rbp)
    2901:	74 54                	je     2957 <_ZNSt8_Rb_treeIiiSt9_IdentityIiESt4lessIiESaIiEE24_M_get_insert_unique_posERKi+0x111>
    2903:	48 8b 45 98          	mov    -0x68(%rbp),%rax
    2907:	48 89 c7             	mov    %rax,%rdi
    290a:	e8 3d 06 00 00       	call   2f4c <_ZNSt8_Rb_treeIiiSt9_IdentityIiESt4lessIiESaIiEE5beginEv>
    290f:	48 89 45 d0          	mov    %rax,-0x30(%rbp)
    2913:	48 8d 55 d0          	lea    -0x30(%rbp),%rdx
    2917:	48 8d 45 c0          	lea    -0x40(%rbp),%rax
    291b:	48 89 d6             	mov    %rdx,%rsi
    291e:	48 89 c7             	mov    %rax,%rdi
    2921:	e8 b4 03 00 00       	call   2cda <_ZSteqRKSt17_Rb_tree_iteratorIiES2_>
    2926:	84 c0                	test   %al,%al
    2928:	74 21                	je     294b <_ZNSt8_Rb_treeIiiSt9_IdentityIiESt4lessIiESaIiEE24_M_get_insert_unique_posERKi+0x105>
    292a:	48 8d 55 b8          	lea    -0x48(%rbp),%rdx
    292e:	48 8d 4d b0          	lea    -0x50(%rbp),%rcx
    2932:	48 8d 45 d0          	lea    -0x30(%rbp),%rax
    2936:	48 89 ce             	mov    %rcx,%rsi
    2939:	48 89 c7             	mov    %rax,%rdi
    293c:	e8 5b 06 00 00       	call   2f9c <_ZNSt4pairIPSt18_Rb_tree_node_baseS1_EC1IRPSt13_Rb_tree_nodeIiERS1_Lb1EEEOT_OT0_>
    2941:	48 8b 45 d0          	mov    -0x30(%rbp),%rax
    2945:	48 8b 55 d8          	mov    -0x28(%rbp),%rdx
    2949:	eb 7d                	jmp    29c8 <_ZNSt8_Rb_treeIiiSt9_IdentityIiESt4lessIiESaIiEE24_M_get_insert_unique_posERKi+0x182>
    294b:	48 8d 45 c0          	lea    -0x40(%rbp),%rax
    294f:	48 89 c7             	mov    %rax,%rdi
    2952:	e8 8d 06 00 00       	call   2fe4 <_ZNSt17_Rb_tree_iteratorIiEmmEv>
    2957:	48 8b 5d 98          	mov    -0x68(%rbp),%rbx
    295b:	48 8b 45 c0          	mov    -0x40(%rbp),%rax
    295f:	48 89 c7             	mov    %rax,%rdi
    2962:	e8 99 03 00 00       	call   2d00 <_ZNSt8_Rb_treeIiiSt9_IdentityIiESt4lessIiESaIiEE6_S_keyEPKSt18_Rb_tree_node_base>
    2967:	48 89 c1             	mov    %rax,%rcx
    296a:	48 8b 45 90          	mov    -0x70(%rbp),%rax
    296e:	48 89 c2             	mov    %rax,%rdx
    2971:	48 89 ce             	mov    %rcx,%rsi
    2974:	48 89 df             	mov    %rbx,%rdi
    2977:	e8 a2 03 00 00       	call   2d1e <_ZNKSt4lessIiEclERKiS2_>
    297c:	84 c0                	test   %al,%al
    297e:	74 21                	je     29a1 <_ZNSt8_Rb_treeIiiSt9_IdentityIiESt4lessIiESaIiEE24_M_get_insert_unique_posERKi+0x15b>
    2980:	48 8d 55 b8          	lea    -0x48(%rbp),%rdx
    2984:	48 8d 4d b0          	lea    -0x50(%rbp),%rcx
    2988:	48 8d 45 d0          	lea    -0x30(%rbp),%rax
    298c:	48 89 ce             	mov    %rcx,%rsi
    298f:	48 89 c7             	mov    %rax,%rdi
    2992:	e8 05 06 00 00       	call   2f9c <_ZNSt4pairIPSt18_Rb_tree_node_baseS1_EC1IRPSt13_Rb_tree_nodeIiERS1_Lb1EEEOT_OT0_>
    2997:	48 8b 45 d0          	mov    -0x30(%rbp),%rax
    299b:	48 8b 55 d8          	mov    -0x28(%rbp),%rdx
    299f:	eb 27                	jmp    29c8 <_ZNSt8_Rb_treeIiiSt9_IdentityIiESt4lessIiESaIiEE24_M_get_insert_unique_posERKi+0x182>
    29a1:	48 c7 45 c8 00 00 00 	movq   $0x0,-0x38(%rbp)
    29a8:	00 
    29a9:	48 8d 55 c8          	lea    -0x38(%rbp),%rdx
    29ad:	48 8d 4d c0          	lea    -0x40(%rbp),%rcx
    29b1:	48 8d 45 d0          	lea    -0x30(%rbp),%rax
    29b5:	48 89 ce             	mov    %rcx,%rsi
    29b8:	48 89 c7             	mov    %rax,%rdi
    29bb:	e8 50 06 00 00       	call   3010 <_ZNSt4pairIPSt18_Rb_tree_node_baseS1_EC1IRS1_Lb1EEEOT_RKS1_>
    29c0:	48 8b 45 d0          	mov    -0x30(%rbp),%rax
    29c4:	48 8b 55 d8          	mov    -0x28(%rbp),%rdx
    29c8:	48 8b 4d e8          	mov    -0x18(%rbp),%rcx
    29cc:	64 48 2b 0c 25 28 00 	sub    %fs:0x28,%rcx
    29d3:	00 00 
    29d5:	74 05                	je     29dc <_ZNSt8_Rb_treeIiiSt9_IdentityIiESt4lessIiESaIiEE24_M_get_insert_unique_posERKi+0x196>
    29d7:	e8 44 e8 ff ff       	call   1220 <__stack_chk_fail@plt>
    29dc:	48 8b 5d f8          	mov    -0x8(%rbp),%rbx
    29e0:	c9                   	leave  
    29e1:	c3                   	ret    

00000000000029e2 <_ZNKSt9_IdentityIiEclERKi>:
    29e2:	f3 0f 1e fa          	endbr64 
    29e6:	55                   	push   %rbp
    29e7:	48 89 e5             	mov    %rsp,%rbp
    29ea:	48 89 7d f8          	mov    %rdi,-0x8(%rbp)
    29ee:	48 89 75 f0          	mov    %rsi,-0x10(%rbp)
    29f2:	48 8b 45 f0          	mov    -0x10(%rbp),%rax
    29f6:	5d                   	pop    %rbp
    29f7:	c3                   	ret    

00000000000029f8 <_ZNSt8_Rb_treeIiiSt9_IdentityIiESt4lessIiESaIiEE11_Alloc_nodeC1ERS5_>:
    29f8:	f3 0f 1e fa          	endbr64 
    29fc:	55                   	push   %rbp
    29fd:	48 89 e5             	mov    %rsp,%rbp
    2a00:	48 89 7d f8          	mov    %rdi,-0x8(%rbp)
    2a04:	48 89 75 f0          	mov    %rsi,-0x10(%rbp)
    2a08:	48 8b 45 f8          	mov    -0x8(%rbp),%rax
    2a0c:	48 8b 55 f0          	mov    -0x10(%rbp),%rdx
    2a10:	48 89 10             	mov    %rdx,(%rax)
    2a13:	90                   	nop
    2a14:	5d                   	pop    %rbp
    2a15:	c3                   	ret    

0000000000002a16 <_ZNSt8_Rb_treeIiiSt9_IdentityIiESt4lessIiESaIiEE10_M_insert_IRKiNS5_11_Alloc_nodeEEESt17_Rb_tree_iteratorIiEPSt18_Rb_tree_node_baseSD_OT_RT0_>:
    2a16:	f3 0f 1e fa          	endbr64 
    2a1a:	55                   	push   %rbp
    2a1b:	48 89 e5             	mov    %rsp,%rbp
    2a1e:	41 54                	push   %r12
    2a20:	53                   	push   %rbx
    2a21:	48 83 ec 50          	sub    $0x50,%rsp
    2a25:	48 89 7d c8          	mov    %rdi,-0x38(%rbp)
    2a29:	48 89 75 c0          	mov    %rsi,-0x40(%rbp)
    2a2d:	48 89 55 b8          	mov    %rdx,-0x48(%rbp)
    2a31:	48 89 4d b0          	mov    %rcx,-0x50(%rbp)
    2a35:	4c 89 45 a8          	mov    %r8,-0x58(%rbp)
    2a39:	64 48 8b 04 25 28 00 	mov    %fs:0x28,%rax
    2a40:	00 00 
    2a42:	48 89 45 e8          	mov    %rax,-0x18(%rbp)
    2a46:	31 c0                	xor    %eax,%eax
    2a48:	48 83 7d c0 00       	cmpq   $0x0,-0x40(%rbp)
    2a4d:	75 4a                	jne    2a99 <_ZNSt8_Rb_treeIiiSt9_IdentityIiESt4lessIiESaIiEE10_M_insert_IRKiNS5_11_Alloc_nodeEEESt17_Rb_tree_iteratorIiEPSt18_Rb_tree_node_baseSD_OT_RT0_+0x83>
    2a4f:	48 8b 45 c8          	mov    -0x38(%rbp),%rax
    2a53:	48 89 c7             	mov    %rax,%rdi
    2a56:	e8 5d 01 00 00       	call   2bb8 <_ZNSt8_Rb_treeIiiSt9_IdentityIiESt4lessIiESaIiEE6_M_endEv>
    2a5b:	48 39 45 b8          	cmp    %rax,-0x48(%rbp)
    2a5f:	74 38                	je     2a99 <_ZNSt8_Rb_treeIiiSt9_IdentityIiESt4lessIiESaIiEE10_M_insert_IRKiNS5_11_Alloc_nodeEEESt17_Rb_tree_iteratorIiEPSt18_Rb_tree_node_baseSD_OT_RT0_+0x83>
    2a61:	48 8b 5d c8          	mov    -0x38(%rbp),%rbx
    2a65:	48 8b 45 b8          	mov    -0x48(%rbp),%rax
    2a69:	48 89 c7             	mov    %rax,%rdi
    2a6c:	e8 8f 02 00 00       	call   2d00 <_ZNSt8_Rb_treeIiiSt9_IdentityIiESt4lessIiESaIiEE6_S_keyEPKSt18_Rb_tree_node_base>
    2a71:	49 89 c4             	mov    %rax,%r12
    2a74:	48 8b 55 b0          	mov    -0x50(%rbp),%rdx
    2a78:	48 8d 45 d8          	lea    -0x28(%rbp),%rax
    2a7c:	48 89 d6             	mov    %rdx,%rsi
    2a7f:	48 89 c7             	mov    %rax,%rdi
    2a82:	e8 5b ff ff ff       	call   29e2 <_ZNKSt9_IdentityIiEclERKi>
    2a87:	4c 89 e2             	mov    %r12,%rdx
    2a8a:	48 89 c6             	mov    %rax,%rsi
    2a8d:	48 89 df             	mov    %rbx,%rdi
    2a90:	e8 89 02 00 00       	call   2d1e <_ZNKSt4lessIiEclERKiS2_>
    2a95:	84 c0                	test   %al,%al
    2a97:	74 07                	je     2aa0 <_ZNSt8_Rb_treeIiiSt9_IdentityIiESt4lessIiESaIiEE10_M_insert_IRKiNS5_11_Alloc_nodeEEESt17_Rb_tree_iteratorIiEPSt18_Rb_tree_node_baseSD_OT_RT0_+0x8a>
    2a99:	b8 01 00 00 00       	mov    $0x1,%eax
    2a9e:	eb 05                	jmp    2aa5 <_ZNSt8_Rb_treeIiiSt9_IdentityIiESt4lessIiESaIiEE10_M_insert_IRKiNS5_11_Alloc_nodeEEESt17_Rb_tree_iteratorIiEPSt18_Rb_tree_node_baseSD_OT_RT0_+0x8f>
    2aa0:	b8 00 00 00 00       	mov    $0x0,%eax
    2aa5:	88 45 d7             	mov    %al,-0x29(%rbp)
    2aa8:	48 8b 45 b0          	mov    -0x50(%rbp),%rax
    2aac:	48 89 c7             	mov    %rax,%rdi
    2aaf:	e8 0d fb ff ff       	call   25c1 <_ZSt7forwardIRKiEOT_RNSt16remove_referenceIS2_E4typeE>
    2ab4:	48 89 c2             	mov    %rax,%rdx
    2ab7:	48 8b 45 a8          	mov    -0x58(%rbp),%rax
    2abb:	48 89 d6             	mov    %rdx,%rsi
    2abe:	48 89 c7             	mov    %rax,%rdi
    2ac1:	e8 8a 05 00 00       	call   3050 <_ZNKSt8_Rb_treeIiiSt9_IdentityIiESt4lessIiESaIiEE11_Alloc_nodeclIRKiEEPSt13_Rb_tree_nodeIiEOT_>
    2ac6:	48 89 45 e0          	mov    %rax,-0x20(%rbp)
    2aca:	48 8b 45 c8          	mov    -0x38(%rbp),%rax
    2ace:	48 8d 48 08          	lea    0x8(%rax),%rcx
    2ad2:	0f b6 45 d7          	movzbl -0x29(%rbp),%eax
    2ad6:	48 8b 55 b8          	mov    -0x48(%rbp),%rdx
    2ada:	48 8b 75 e0          	mov    -0x20(%rbp),%rsi
    2ade:	89 c7                	mov    %eax,%edi
    2ae0:	e8 7b e6 ff ff       	call   1160 <_ZSt29_Rb_tree_insert_and_rebalancebPSt18_Rb_tree_node_baseS0_RS_@plt>
    2ae5:	48 8b 45 c8          	mov    -0x38(%rbp),%rax
    2ae9:	48 8b 40 28          	mov    0x28(%rax),%rax
    2aed:	48 8d 50 01          	lea    0x1(%rax),%rdx
    2af1:	48 8b 45 c8          	mov    -0x38(%rbp),%rax
    2af5:	48 89 50 28          	mov    %rdx,0x28(%rax)
    2af9:	48 8b 55 e0          	mov    -0x20(%rbp),%rdx
    2afd:	48 8d 45 d8          	lea    -0x28(%rbp),%rax
    2b01:	48 89 d6             	mov    %rdx,%rsi
    2b04:	48 89 c7             	mov    %rax,%rdi
    2b07:	e8 6a 00 00 00       	call   2b76 <_ZNSt17_Rb_tree_iteratorIiEC1EPSt18_Rb_tree_node_base>
    2b0c:	48 8b 45 d8          	mov    -0x28(%rbp),%rax
    2b10:	48 8b 55 e8          	mov    -0x18(%rbp),%rdx
    2b14:	64 48 2b 14 25 28 00 	sub    %fs:0x28,%rdx
    2b1b:	00 00 
    2b1d:	74 05                	je     2b24 <_ZNSt8_Rb_treeIiiSt9_IdentityIiESt4lessIiESaIiEE10_M_insert_IRKiNS5_11_Alloc_nodeEEESt17_Rb_tree_iteratorIiEPSt18_Rb_tree_node_baseSD_OT_RT0_+0x10e>
    2b1f:	e8 fc e6 ff ff       	call   1220 <__stack_chk_fail@plt>
    2b24:	48 83 c4 50          	add    $0x50,%rsp
    2b28:	5b                   	pop    %rbx
    2b29:	41 5c                	pop    %r12
    2b2b:	5d                   	pop    %rbp
    2b2c:	c3                   	ret    
    2b2d:	90                   	nop

0000000000002b2e <_ZNSt4pairISt17_Rb_tree_iteratorIiEbEC1IS1_bLb1EEEOT_OT0_>:
    2b2e:	f3 0f 1e fa          	endbr64 
    2b32:	55                   	push   %rbp
    2b33:	48 89 e5             	mov    %rsp,%rbp
    2b36:	48 83 ec 20          	sub    $0x20,%rsp
    2b3a:	48 89 7d f8          	mov    %rdi,-0x8(%rbp)
    2b3e:	48 89 75 f0          	mov    %rsi,-0x10(%rbp)
    2b42:	48 89 55 e8          	mov    %rdx,-0x18(%rbp)
    2b46:	48 8b 45 f0          	mov    -0x10(%rbp),%rax
    2b4a:	48 89 c7             	mov    %rax,%rdi
    2b4d:	e8 37 05 00 00       	call   3089 <_ZSt7forwardISt17_Rb_tree_iteratorIiEEOT_RNSt16remove_referenceIS2_E4typeE>
    2b52:	48 8b 55 f8          	mov    -0x8(%rbp),%rdx
    2b56:	48 8b 00             	mov    (%rax),%rax
    2b59:	48 89 02             	mov    %rax,(%rdx)
    2b5c:	48 8b 45 e8          	mov    -0x18(%rbp),%rax
    2b60:	48 89 c7             	mov    %rax,%rdi
    2b63:	e8 f3 f2 ff ff       	call   1e5b <_ZSt7forwardIbEOT_RNSt16remove_referenceIS0_E4typeE>
    2b68:	0f b6 10             	movzbl (%rax),%edx
    2b6b:	48 8b 45 f8          	mov    -0x8(%rbp),%rax
    2b6f:	88 50 08             	mov    %dl,0x8(%rax)
    2b72:	90                   	nop
    2b73:	c9                   	leave  
    2b74:	c3                   	ret    
    2b75:	90                   	nop

0000000000002b76 <_ZNSt17_Rb_tree_iteratorIiEC1EPSt18_Rb_tree_node_base>:
    2b76:	f3 0f 1e fa          	endbr64 
    2b7a:	55                   	push   %rbp
    2b7b:	48 89 e5             	mov    %rsp,%rbp
    2b7e:	48 89 7d f8          	mov    %rdi,-0x8(%rbp)
    2b82:	48 89 75 f0          	mov    %rsi,-0x10(%rbp)
    2b86:	48 8b 45 f8          	mov    -0x8(%rbp),%rax
    2b8a:	48 8b 55 f0          	mov    -0x10(%rbp),%rdx
    2b8e:	48 89 10             	mov    %rdx,(%rax)
    2b91:	90                   	nop
    2b92:	5d                   	pop    %rbp
    2b93:	c3                   	ret    

0000000000002b94 <_ZSt7forwardIRSt17_Rb_tree_iteratorIiEEOT_RNSt16remove_referenceIS3_E4typeE>:
    2b94:	f3 0f 1e fa          	endbr64 
    2b98:	55                   	push   %rbp
    2b99:	48 89 e5             	mov    %rsp,%rbp
    2b9c:	48 89 7d f8          	mov    %rdi,-0x8(%rbp)
    2ba0:	48 8b 45 f8          	mov    -0x8(%rbp),%rax
    2ba4:	5d                   	pop    %rbp
    2ba5:	c3                   	ret    

0000000000002ba6 <_ZSt7forwardIRbEOT_RNSt16remove_referenceIS1_E4typeE>:
    2ba6:	f3 0f 1e fa          	endbr64 
    2baa:	55                   	push   %rbp
    2bab:	48 89 e5             	mov    %rsp,%rbp
    2bae:	48 89 7d f8          	mov    %rdi,-0x8(%rbp)
    2bb2:	48 8b 45 f8          	mov    -0x8(%rbp),%rax
    2bb6:	5d                   	pop    %rbp
    2bb7:	c3                   	ret    

0000000000002bb8 <_ZNSt8_Rb_treeIiiSt9_IdentityIiESt4lessIiESaIiEE6_M_endEv>:
    2bb8:	f3 0f 1e fa          	endbr64 
    2bbc:	55                   	push   %rbp
    2bbd:	48 89 e5             	mov    %rsp,%rbp
    2bc0:	48 89 7d f8          	mov    %rdi,-0x8(%rbp)
    2bc4:	48 8b 45 f8          	mov    -0x8(%rbp),%rax
    2bc8:	48 83 c0 08          	add    $0x8,%rax
    2bcc:	5d                   	pop    %rbp
    2bcd:	c3                   	ret    

0000000000002bce <_ZNSt8_Rb_treeIiiSt9_IdentityIiESt4lessIiESaIiEE14_M_lower_boundEPSt13_Rb_tree_nodeIiEPSt18_Rb_tree_node_baseRKi>:
    2bce:	f3 0f 1e fa          	endbr64 
    2bd2:	55                   	push   %rbp
    2bd3:	48 89 e5             	mov    %rsp,%rbp
    2bd6:	53                   	push   %rbx
    2bd7:	48 83 ec 38          	sub    $0x38,%rsp
    2bdb:	48 89 7d d8          	mov    %rdi,-0x28(%rbp)
    2bdf:	48 89 75 d0          	mov    %rsi,-0x30(%rbp)
    2be3:	48 89 55 c8          	mov    %rdx,-0x38(%rbp)
    2be7:	48 89 4d c0          	mov    %rcx,-0x40(%rbp)
    2beb:	64 48 8b 04 25 28 00 	mov    %fs:0x28,%rax
    2bf2:	00 00 
    2bf4:	48 89 45 e8          	mov    %rax,-0x18(%rbp)
    2bf8:	31 c0                	xor    %eax,%eax
    2bfa:	eb 56                	jmp    2c52 <_ZNSt8_Rb_treeIiiSt9_IdentityIiESt4lessIiESaIiEE14_M_lower_boundEPSt13_Rb_tree_nodeIiEPSt18_Rb_tree_node_baseRKi+0x84>
    2bfc:	48 8b 5d d8          	mov    -0x28(%rbp),%rbx
    2c00:	48 8b 45 d0          	mov    -0x30(%rbp),%rax
    2c04:	48 89 c7             	mov    %rax,%rdi
    2c07:	e8 ec 02 00 00       	call   2ef8 <_ZNSt8_Rb_treeIiiSt9_IdentityIiESt4lessIiESaIiEE6_S_keyEPKSt13_Rb_tree_nodeIiE>
    2c0c:	48 89 c1             	mov    %rax,%rcx
    2c0f:	48 8b 45 c0          	mov    -0x40(%rbp),%rax
    2c13:	48 89 c2             	mov    %rax,%rdx
    2c16:	48 89 ce             	mov    %rcx,%rsi
    2c19:	48 89 df             	mov    %rbx,%rdi
    2c1c:	e8 fd 00 00 00       	call   2d1e <_ZNKSt4lessIiEclERKiS2_>
    2c21:	83 f0 01             	xor    $0x1,%eax
    2c24:	84 c0                	test   %al,%al
    2c26:	74 1a                	je     2c42 <_ZNSt8_Rb_treeIiiSt9_IdentityIiESt4lessIiESaIiEE14_M_lower_boundEPSt13_Rb_tree_nodeIiEPSt18_Rb_tree_node_baseRKi+0x74>
    2c28:	48 8b 45 d0          	mov    -0x30(%rbp),%rax
    2c2c:	48 89 45 c8          	mov    %rax,-0x38(%rbp)
    2c30:	48 8b 45 d0          	mov    -0x30(%rbp),%rax
    2c34:	48 89 c7             	mov    %rax,%rdi
    2c37:	e8 9f fb ff ff       	call   27db <_ZNSt8_Rb_treeIiiSt9_IdentityIiESt4lessIiESaIiEE7_S_leftEPSt18_Rb_tree_node_base>
    2c3c:	48 89 45 d0          	mov    %rax,-0x30(%rbp)
    2c40:	eb 10                	jmp    2c52 <_ZNSt8_Rb_treeIiiSt9_IdentityIiESt4lessIiESaIiEE14_M_lower_boundEPSt13_Rb_tree_nodeIiEPSt18_Rb_tree_node_baseRKi+0x84>
    2c42:	48 8b 45 d0          	mov    -0x30(%rbp),%rax
    2c46:	48 89 c7             	mov    %rax,%rdi
    2c49:	e8 77 fb ff ff       	call   27c5 <_ZNSt8_Rb_treeIiiSt9_IdentityIiESt4lessIiESaIiEE8_S_rightEPSt18_Rb_tree_node_base>
    2c4e:	48 89 45 d0          	mov    %rax,-0x30(%rbp)
    2c52:	48 83 7d d0 00       	cmpq   $0x0,-0x30(%rbp)
    2c57:	75 a3                	jne    2bfc <_ZNSt8_Rb_treeIiiSt9_IdentityIiESt4lessIiESaIiEE14_M_lower_boundEPSt13_Rb_tree_nodeIiEPSt18_Rb_tree_node_baseRKi+0x2e>
    2c59:	48 8b 55 c8          	mov    -0x38(%rbp),%rdx
    2c5d:	48 8d 45 e0          	lea    -0x20(%rbp),%rax
    2c61:	48 89 d6             	mov    %rdx,%rsi
    2c64:	48 89 c7             	mov    %rax,%rdi
    2c67:	e8 0a ff ff ff       	call   2b76 <_ZNSt17_Rb_tree_iteratorIiEC1EPSt18_Rb_tree_node_base>
    2c6c:	48 8b 45 e0          	mov    -0x20(%rbp),%rax
    2c70:	48 8b 55 e8          	mov    -0x18(%rbp),%rdx
    2c74:	64 48 2b 14 25 28 00 	sub    %fs:0x28,%rdx
    2c7b:	00 00 
    2c7d:	74 05                	je     2c84 <_ZNSt8_Rb_treeIiiSt9_IdentityIiESt4lessIiESaIiEE14_M_lower_boundEPSt13_Rb_tree_nodeIiEPSt18_Rb_tree_node_baseRKi+0xb6>
    2c7f:	e8 9c e5 ff ff       	call   1220 <__stack_chk_fail@plt>
    2c84:	48 8b 5d f8          	mov    -0x8(%rbp),%rbx
    2c88:	c9                   	leave  
    2c89:	c3                   	ret    

0000000000002c8a <_ZNSt8_Rb_treeIiiSt9_IdentityIiESt4lessIiESaIiEE3endEv>:
    2c8a:	f3 0f 1e fa          	endbr64 
    2c8e:	55                   	push   %rbp
    2c8f:	48 89 e5             	mov    %rsp,%rbp
    2c92:	48 83 ec 20          	sub    $0x20,%rsp
    2c96:	48 89 7d e8          	mov    %rdi,-0x18(%rbp)
    2c9a:	64 48 8b 04 25 28 00 	mov    %fs:0x28,%rax
    2ca1:	00 00 
    2ca3:	48 89 45 f8          	mov    %rax,-0x8(%rbp)
    2ca7:	31 c0                	xor    %eax,%eax
    2ca9:	48 8b 45 e8          	mov    -0x18(%rbp),%rax
    2cad:	48 8d 50 08          	lea    0x8(%rax),%rdx
    2cb1:	48 8d 45 f0          	lea    -0x10(%rbp),%rax
    2cb5:	48 89 d6             	mov    %rdx,%rsi
    2cb8:	48 89 c7             	mov    %rax,%rdi
    2cbb:	e8 b6 fe ff ff       	call   2b76 <_ZNSt17_Rb_tree_iteratorIiEC1EPSt18_Rb_tree_node_base>
    2cc0:	48 8b 45 f0          	mov    -0x10(%rbp),%rax
    2cc4:	48 8b 55 f8          	mov    -0x8(%rbp),%rdx
    2cc8:	64 48 2b 14 25 28 00 	sub    %fs:0x28,%rdx
    2ccf:	00 00 
    2cd1:	74 05                	je     2cd8 <_ZNSt8_Rb_treeIiiSt9_IdentityIiESt4lessIiESaIiEE3endEv+0x4e>
    2cd3:	e8 48 e5 ff ff       	call   1220 <__stack_chk_fail@plt>
    2cd8:	c9                   	leave  
    2cd9:	c3                   	ret    

0000000000002cda <_ZSteqRKSt17_Rb_tree_iteratorIiES2_>:
    2cda:	f3 0f 1e fa          	endbr64 
    2cde:	55                   	push   %rbp
    2cdf:	48 89 e5             	mov    %rsp,%rbp
    2ce2:	48 89 7d f8          	mov    %rdi,-0x8(%rbp)
    2ce6:	48 89 75 f0          	mov    %rsi,-0x10(%rbp)
    2cea:	48 8b 45 f8          	mov    -0x8(%rbp),%rax
    2cee:	48 8b 10             	mov    (%rax),%rdx
    2cf1:	48 8b 45 f0          	mov    -0x10(%rbp),%rax
    2cf5:	48 8b 00             	mov    (%rax),%rax
    2cf8:	48 39 c2             	cmp    %rax,%rdx
    2cfb:	0f 94 c0             	sete   %al
    2cfe:	5d                   	pop    %rbp
    2cff:	c3                   	ret    

0000000000002d00 <_ZNSt8_Rb_treeIiiSt9_IdentityIiESt4lessIiESaIiEE6_S_keyEPKSt18_Rb_tree_node_base>:
    2d00:	f3 0f 1e fa          	endbr64 
    2d04:	55                   	push   %rbp
    2d05:	48 89 e5             	mov    %rsp,%rbp
    2d08:	48 83 ec 10          	sub    $0x10,%rsp
    2d0c:	48 89 7d f8          	mov    %rdi,-0x8(%rbp)
    2d10:	48 8b 45 f8          	mov    -0x8(%rbp),%rax
    2d14:	48 89 c7             	mov    %rax,%rdi
    2d17:	e8 dc 01 00 00       	call   2ef8 <_ZNSt8_Rb_treeIiiSt9_IdentityIiESt4lessIiESaIiEE6_S_keyEPKSt13_Rb_tree_nodeIiE>
    2d1c:	c9                   	leave  
    2d1d:	c3                   	ret    

0000000000002d1e <_ZNKSt4lessIiEclERKiS2_>:
    2d1e:	f3 0f 1e fa          	endbr64 
    2d22:	55                   	push   %rbp
    2d23:	48 89 e5             	mov    %rsp,%rbp
    2d26:	48 89 7d f8          	mov    %rdi,-0x8(%rbp)
    2d2a:	48 89 75 f0          	mov    %rsi,-0x10(%rbp)
    2d2e:	48 89 55 e8          	mov    %rdx,-0x18(%rbp)
    2d32:	48 8b 45 f0          	mov    -0x10(%rbp),%rax
    2d36:	8b 10                	mov    (%rax),%edx
    2d38:	48 8b 45 e8          	mov    -0x18(%rbp),%rax
    2d3c:	8b 00                	mov    (%rax),%eax
    2d3e:	39 c2                	cmp    %eax,%edx
    2d40:	0f 9c c0             	setl   %al
    2d43:	5d                   	pop    %rbp
    2d44:	c3                   	ret    
    2d45:	90                   	nop

0000000000002d46 <_ZNSt23_Rb_tree_const_iteratorIiEC1EPKSt18_Rb_tree_node_base>:
    2d46:	f3 0f 1e fa          	endbr64 
    2d4a:	55                   	push   %rbp
    2d4b:	48 89 e5             	mov    %rsp,%rbp
    2d4e:	48 89 7d f8          	mov    %rdi,-0x8(%rbp)
    2d52:	48 89 75 f0          	mov    %rsi,-0x10(%rbp)
    2d56:	48 8b 45 f8          	mov    -0x8(%rbp),%rax
    2d5a:	48 8b 55 f0          	mov    -0x10(%rbp),%rdx
    2d5e:	48 89 10             	mov    %rdx,(%rax)
    2d61:	90                   	nop
    2d62:	5d                   	pop    %rbp
    2d63:	c3                   	ret    

0000000000002d64 <_ZNK9__gnu_cxx16__aligned_membufIiE6_M_ptrEv>:
    2d64:	f3 0f 1e fa          	endbr64 
    2d68:	55                   	push   %rbp
    2d69:	48 89 e5             	mov    %rsp,%rbp
    2d6c:	48 83 ec 10          	sub    $0x10,%rsp
    2d70:	48 89 7d f8          	mov    %rdi,-0x8(%rbp)
    2d74:	48 8b 45 f8          	mov    -0x8(%rbp),%rax
    2d78:	48 89 c7             	mov    %rax,%rdi
    2d7b:	e8 1c 03 00 00       	call   309c <_ZNK9__gnu_cxx16__aligned_membufIiE7_M_addrEv>
    2d80:	c9                   	leave  
    2d81:	c3                   	ret    

0000000000002d82 <_ZN9__gnu_cxx13new_allocatorIiE10deallocateEPim>:
    2d82:	f3 0f 1e fa          	endbr64 
    2d86:	55                   	push   %rbp
    2d87:	48 89 e5             	mov    %rsp,%rbp
    2d8a:	48 83 ec 20          	sub    $0x20,%rsp
    2d8e:	48 89 7d f8          	mov    %rdi,-0x8(%rbp)
    2d92:	48 89 75 f0          	mov    %rsi,-0x10(%rbp)
    2d96:	48 89 55 e8          	mov    %rdx,-0x18(%rbp)
    2d9a:	48 8b 45 e8          	mov    -0x18(%rbp),%rax
    2d9e:	48 8d 14 85 00 00 00 	lea    0x0(,%rax,4),%rdx
    2da5:	00 
    2da6:	48 8b 45 f0          	mov    -0x10(%rbp),%rax
    2daa:	48 89 d6             	mov    %rdx,%rsi
    2dad:	48 89 c7             	mov    %rax,%rdi
    2db0:	e8 4b e4 ff ff       	call   1200 <_ZdlPvm@plt>
    2db5:	c9                   	leave  
    2db6:	c3                   	ret    

0000000000002db7 <_ZNSt12_Destroy_auxILb1EE9__destroyIPiEEvT_S3_>:
    2db7:	f3 0f 1e fa          	endbr64 
    2dbb:	55                   	push   %rbp
    2dbc:	48 89 e5             	mov    %rsp,%rbp
    2dbf:	48 89 7d f8          	mov    %rdi,-0x8(%rbp)
    2dc3:	48 89 75 f0          	mov    %rsi,-0x10(%rbp)
    2dc7:	90                   	nop
    2dc8:	5d                   	pop    %rbp
    2dc9:	c3                   	ret    

0000000000002dca <_ZNKSt6vectorIiSaIiEE8max_sizeEv>:
    2dca:	f3 0f 1e fa          	endbr64 
    2dce:	55                   	push   %rbp
    2dcf:	48 89 e5             	mov    %rsp,%rbp
    2dd2:	48 83 ec 10          	sub    $0x10,%rsp
    2dd6:	48 89 7d f8          	mov    %rdi,-0x8(%rbp)
    2dda:	48 8b 45 f8          	mov    -0x8(%rbp),%rax
    2dde:	48 89 c7             	mov    %rax,%rdi
    2de1:	e8 32 03 00 00       	call   3118 <_ZNKSt12_Vector_baseIiSaIiEE19_M_get_Tp_allocatorEv>
    2de6:	48 89 c7             	mov    %rax,%rdi
    2de9:	e8 c0 02 00 00       	call   30ae <_ZNSt6vectorIiSaIiEE11_S_max_sizeERKS0_>
    2dee:	c9                   	leave  
    2def:	c3                   	ret    

0000000000002df0 <_ZNKSt6vectorIiSaIiEE4sizeEv>:
    2df0:	f3 0f 1e fa          	endbr64 
    2df4:	55                   	push   %rbp
    2df5:	48 89 e5             	mov    %rsp,%rbp
    2df8:	48 89 7d f8          	mov    %rdi,-0x8(%rbp)
    2dfc:	48 8b 45 f8          	mov    -0x8(%rbp),%rax
    2e00:	48 8b 50 08          	mov    0x8(%rax),%rdx
    2e04:	48 8b 45 f8          	mov    -0x8(%rbp),%rax
    2e08:	48 8b 08             	mov    (%rax),%rcx
    2e0b:	48 89 d0             	mov    %rdx,%rax
    2e0e:	48 29 c8             	sub    %rcx,%rax
    2e11:	48 c1 f8 02          	sar    $0x2,%rax
    2e15:	5d                   	pop    %rbp
    2e16:	c3                   	ret    

0000000000002e17 <_ZNSt16allocator_traitsISaIiEE8allocateERS0_m>:
    2e17:	f3 0f 1e fa          	endbr64 
    2e1b:	55                   	push   %rbp
    2e1c:	48 89 e5             	mov    %rsp,%rbp
    2e1f:	48 83 ec 10          	sub    $0x10,%rsp
    2e23:	48 89 7d f8          	mov    %rdi,-0x8(%rbp)
    2e27:	48 89 75 f0          	mov    %rsi,-0x10(%rbp)
    2e2b:	48 8b 4d f0          	mov    -0x10(%rbp),%rcx
    2e2f:	48 8b 45 f8          	mov    -0x8(%rbp),%rax
    2e33:	ba 00 00 00 00       	mov    $0x0,%edx
    2e38:	48 89 ce             	mov    %rcx,%rsi
    2e3b:	48 89 c7             	mov    %rax,%rdi
    2e3e:	e8 ff 02 00 00       	call   3142 <_ZN9__gnu_cxx13new_allocatorIiE8allocateEmPKv>
    2e43:	c9                   	leave  
    2e44:	c3                   	ret    

0000000000002e45 <_ZNSt6vectorIiSaIiEE14_S_do_relocateEPiS2_S2_RS0_St17integral_constantIbLb1EE>:
    2e45:	f3 0f 1e fa          	endbr64 
    2e49:	55                   	push   %rbp
    2e4a:	48 89 e5             	mov    %rsp,%rbp
    2e4d:	48 83 ec 20          	sub    $0x20,%rsp
    2e51:	48 89 7d f8          	mov    %rdi,-0x8(%rbp)
    2e55:	48 89 75 f0          	mov    %rsi,-0x10(%rbp)
    2e59:	48 89 55 e8          	mov    %rdx,-0x18(%rbp)
    2e5d:	48 89 4d e0          	mov    %rcx,-0x20(%rbp)
    2e61:	48 8b 4d e0          	mov    -0x20(%rbp),%rcx
    2e65:	48 8b 55 e8          	mov    -0x18(%rbp),%rdx
    2e69:	48 8b 75 f0          	mov    -0x10(%rbp),%rsi
    2e6d:	48 8b 45 f8          	mov    -0x8(%rbp),%rax
    2e71:	48 89 c7             	mov    %rax,%rdi
    2e74:	e8 2e 03 00 00       	call   31a7 <_ZSt12__relocate_aIPiS0_SaIiEET0_T_S3_S2_RT1_>
    2e79:	c9                   	leave  
    2e7a:	c3                   	ret    
    2e7b:	90                   	nop

0000000000002e7c <_ZNSt8_Rb_treeIiiSt9_IdentityIiESt4lessIiESaIiEE15_M_destroy_nodeEPSt13_Rb_tree_nodeIiE>:
    2e7c:	f3 0f 1e fa          	endbr64 
    2e80:	55                   	push   %rbp
    2e81:	48 89 e5             	mov    %rsp,%rbp
    2e84:	53                   	push   %rbx
    2e85:	48 83 ec 18          	sub    $0x18,%rsp
    2e89:	48 89 7d e8          	mov    %rdi,-0x18(%rbp)
    2e8d:	48 89 75 e0          	mov    %rsi,-0x20(%rbp)
    2e91:	48 8b 45 e0          	mov    -0x20(%rbp),%rax
    2e95:	48 89 c7             	mov    %rax,%rdi
    2e98:	e8 83 03 00 00       	call   3220 <_ZNSt13_Rb_tree_nodeIiE9_M_valptrEv>
    2e9d:	48 89 c3             	mov    %rax,%rbx
    2ea0:	48 8b 45 e8          	mov    -0x18(%rbp),%rax
    2ea4:	48 89 c7             	mov    %rax,%rdi
    2ea7:	e8 62 03 00 00       	call   320e <_ZNSt8_Rb_treeIiiSt9_IdentityIiESt4lessIiESaIiEE21_M_get_Node_allocatorEv>
    2eac:	48 89 de             	mov    %rbx,%rsi
    2eaf:	48 89 c7             	mov    %rax,%rdi
    2eb2:	e8 8b 03 00 00       	call   3242 <_ZNSt16allocator_traitsISaISt13_Rb_tree_nodeIiEEE7destroyIiEEvRS2_PT_>
    2eb7:	90                   	nop
    2eb8:	48 8b 5d f8          	mov    -0x8(%rbp),%rbx
    2ebc:	c9                   	leave  
    2ebd:	c3                   	ret    

0000000000002ebe <_ZNSt8_Rb_treeIiiSt9_IdentityIiESt4lessIiESaIiEE11_M_put_nodeEPSt13_Rb_tree_nodeIiE>:
    2ebe:	f3 0f 1e fa          	endbr64 
    2ec2:	55                   	push   %rbp
    2ec3:	48 89 e5             	mov    %rsp,%rbp
    2ec6:	48 83 ec 10          	sub    $0x10,%rsp
    2eca:	48 89 7d f8          	mov    %rdi,-0x8(%rbp)
    2ece:	48 89 75 f0          	mov    %rsi,-0x10(%rbp)
    2ed2:	48 8b 45 f8          	mov    -0x8(%rbp),%rax
    2ed6:	48 89 c7             	mov    %rax,%rdi
    2ed9:	e8 30 03 00 00       	call   320e <_ZNSt8_Rb_treeIiiSt9_IdentityIiESt4lessIiESaIiEE21_M_get_Node_allocatorEv>
    2ede:	48 89 c1             	mov    %rax,%rcx
    2ee1:	48 8b 45 f0          	mov    -0x10(%rbp),%rax
    2ee5:	ba 01 00 00 00       	mov    $0x1,%edx
    2eea:	48 89 c6             	mov    %rax,%rsi
    2eed:	48 89 cf             	mov    %rcx,%rdi
    2ef0:	e8 77 03 00 00       	call   326c <_ZNSt16allocator_traitsISaISt13_Rb_tree_nodeIiEEE10deallocateERS2_PS1_m>
    2ef5:	90                   	nop
    2ef6:	c9                   	leave  
    2ef7:	c3                   	ret    

0000000000002ef8 <_ZNSt8_Rb_treeIiiSt9_IdentityIiESt4lessIiESaIiEE6_S_keyEPKSt13_Rb_tree_nodeIiE>:
    2ef8:	f3 0f 1e fa          	endbr64 
    2efc:	55                   	push   %rbp
    2efd:	48 89 e5             	mov    %rsp,%rbp
    2f00:	48 83 ec 20          	sub    $0x20,%rsp
    2f04:	48 89 7d e8          	mov    %rdi,-0x18(%rbp)
    2f08:	64 48 8b 04 25 28 00 	mov    %fs:0x28,%rax
    2f0f:	00 00 
    2f11:	48 89 45 f8          	mov    %rax,-0x8(%rbp)
    2f15:	31 c0                	xor    %eax,%eax
    2f17:	48 8b 45 e8          	mov    -0x18(%rbp),%rax
    2f1b:	48 89 c7             	mov    %rax,%rdi
    2f1e:	e8 11 f6 ff ff       	call   2534 <_ZNKSt13_Rb_tree_nodeIiE9_M_valptrEv>
    2f23:	48 89 c2             	mov    %rax,%rdx
    2f26:	48 8d 45 f7          	lea    -0x9(%rbp),%rax
    2f2a:	48 89 d6             	mov    %rdx,%rsi
    2f2d:	48 89 c7             	mov    %rax,%rdi
    2f30:	e8 ad fa ff ff       	call   29e2 <_ZNKSt9_IdentityIiEclERKi>
    2f35:	48 8b 55 f8          	mov    -0x8(%rbp),%rdx
    2f39:	64 48 2b 14 25 28 00 	sub    %fs:0x28,%rdx
    2f40:	00 00 
    2f42:	74 05                	je     2f49 <_ZNSt8_Rb_treeIiiSt9_IdentityIiESt4lessIiESaIiEE6_S_keyEPKSt13_Rb_tree_nodeIiE+0x51>
    2f44:	e8 d7 e2 ff ff       	call   1220 <__stack_chk_fail@plt>
    2f49:	c9                   	leave  
    2f4a:	c3                   	ret    
    2f4b:	90                   	nop

0000000000002f4c <_ZNSt8_Rb_treeIiiSt9_IdentityIiESt4lessIiESaIiEE5beginEv>:
    2f4c:	f3 0f 1e fa          	endbr64 
    2f50:	55                   	push   %rbp
    2f51:	48 89 e5             	mov    %rsp,%rbp
    2f54:	48 83 ec 20          	sub    $0x20,%rsp
    2f58:	48 89 7d e8          	mov    %rdi,-0x18(%rbp)
    2f5c:	64 48 8b 04 25 28 00 	mov    %fs:0x28,%rax
    2f63:	00 00 
    2f65:	48 89 45 f8          	mov    %rax,-0x8(%rbp)
    2f69:	31 c0                	xor    %eax,%eax
    2f6b:	48 8b 45 e8          	mov    -0x18(%rbp),%rax
    2f6f:	48 8b 50 18          	mov    0x18(%rax),%rdx
    2f73:	48 8d 45 f0          	lea    -0x10(%rbp),%rax
    2f77:	48 89 d6             	mov    %rdx,%rsi
    2f7a:	48 89 c7             	mov    %rax,%rdi
    2f7d:	e8 f4 fb ff ff       	call   2b76 <_ZNSt17_Rb_tree_iteratorIiEC1EPSt18_Rb_tree_node_base>
    2f82:	48 8b 45 f0          	mov    -0x10(%rbp),%rax
    2f86:	48 8b 55 f8          	mov    -0x8(%rbp),%rdx
    2f8a:	64 48 2b 14 25 28 00 	sub    %fs:0x28,%rdx
    2f91:	00 00 
    2f93:	74 05                	je     2f9a <_ZNSt8_Rb_treeIiiSt9_IdentityIiESt4lessIiESaIiEE5beginEv+0x4e>
    2f95:	e8 86 e2 ff ff       	call   1220 <__stack_chk_fail@plt>
    2f9a:	c9                   	leave  
    2f9b:	c3                   	ret    

0000000000002f9c <_ZNSt4pairIPSt18_Rb_tree_node_baseS1_EC1IRPSt13_Rb_tree_nodeIiERS1_Lb1EEEOT_OT0_>:
    2f9c:	f3 0f 1e fa          	endbr64 
    2fa0:	55                   	push   %rbp
    2fa1:	48 89 e5             	mov    %rsp,%rbp
    2fa4:	48 83 ec 20          	sub    $0x20,%rsp
    2fa8:	48 89 7d f8          	mov    %rdi,-0x8(%rbp)
    2fac:	48 89 75 f0          	mov    %rsi,-0x10(%rbp)
    2fb0:	48 89 55 e8          	mov    %rdx,-0x18(%rbp)
    2fb4:	48 8b 45 f0          	mov    -0x10(%rbp),%rax
    2fb8:	48 89 c7             	mov    %rax,%rdi
    2fbb:	e8 de 02 00 00       	call   329e <_ZSt7forwardIRPSt13_Rb_tree_nodeIiEEOT_RNSt16remove_referenceIS4_E4typeE>
    2fc0:	48 8b 10             	mov    (%rax),%rdx
    2fc3:	48 8b 45 f8          	mov    -0x8(%rbp),%rax
    2fc7:	48 89 10             	mov    %rdx,(%rax)
    2fca:	48 8b 45 e8          	mov    -0x18(%rbp),%rax
    2fce:	48 89 c7             	mov    %rax,%rdi
    2fd1:	e8 da 02 00 00       	call   32b0 <_ZSt7forwardIRPSt18_Rb_tree_node_baseEOT_RNSt16remove_referenceIS3_E4typeE>
    2fd6:	48 8b 10             	mov    (%rax),%rdx
    2fd9:	48 8b 45 f8          	mov    -0x8(%rbp),%rax
    2fdd:	48 89 50 08          	mov    %rdx,0x8(%rax)
    2fe1:	90                   	nop
    2fe2:	c9                   	leave  
    2fe3:	c3                   	ret    

0000000000002fe4 <_ZNSt17_Rb_tree_iteratorIiEmmEv>:
    2fe4:	f3 0f 1e fa          	endbr64 
    2fe8:	55                   	push   %rbp
    2fe9:	48 89 e5             	mov    %rsp,%rbp
    2fec:	48 83 ec 10          	sub    $0x10,%rsp
    2ff0:	48 89 7d f8          	mov    %rdi,-0x8(%rbp)
    2ff4:	48 8b 45 f8          	mov    -0x8(%rbp),%rax
    2ff8:	48 8b 00             	mov    (%rax),%rax
    2ffb:	48 89 c7             	mov    %rax,%rdi
    2ffe:	e8 0d e2 ff ff       	call   1210 <_ZSt18_Rb_tree_decrementPSt18_Rb_tree_node_base@plt>
    3003:	48 8b 55 f8          	mov    -0x8(%rbp),%rdx
    3007:	48 89 02             	mov    %rax,(%rdx)
    300a:	48 8b 45 f8          	mov    -0x8(%rbp),%rax
    300e:	c9                   	leave  
    300f:	c3                   	ret    

0000000000003010 <_ZNSt4pairIPSt18_Rb_tree_node_baseS1_EC1IRS1_Lb1EEEOT_RKS1_>:
    3010:	f3 0f 1e fa          	endbr64 
    3014:	55                   	push   %rbp
    3015:	48 89 e5             	mov    %rsp,%rbp
    3018:	48 83 ec 20          	sub    $0x20,%rsp
    301c:	48 89 7d f8          	mov    %rdi,-0x8(%rbp)
    3020:	48 89 75 f0          	mov    %rsi,-0x10(%rbp)
    3024:	48 89 55 e8          	mov    %rdx,-0x18(%rbp)
    3028:	48 8b 45 f0          	mov    -0x10(%rbp),%rax
    302c:	48 89 c7             	mov    %rax,%rdi
    302f:	e8 7c 02 00 00       	call   32b0 <_ZSt7forwardIRPSt18_Rb_tree_node_baseEOT_RNSt16remove_referenceIS3_E4typeE>
    3034:	48 8b 10             	mov    (%rax),%rdx
    3037:	48 8b 45 f8          	mov    -0x8(%rbp),%rax
    303b:	48 89 10             	mov    %rdx,(%rax)
    303e:	48 8b 45 e8          	mov    -0x18(%rbp),%rax
    3042:	48 8b 10             	mov    (%rax),%rdx
    3045:	48 8b 45 f8          	mov    -0x8(%rbp),%rax
    3049:	48 89 50 08          	mov    %rdx,0x8(%rax)
    304d:	90                   	nop
    304e:	c9                   	leave  
    304f:	c3                   	ret    

0000000000003050 <_ZNKSt8_Rb_treeIiiSt9_IdentityIiESt4lessIiESaIiEE11_Alloc_nodeclIRKiEEPSt13_Rb_tree_nodeIiEOT_>:
    3050:	f3 0f 1e fa          	endbr64 
    3054:	55                   	push   %rbp
    3055:	48 89 e5             	mov    %rsp,%rbp
    3058:	53                   	push   %rbx
    3059:	48 83 ec 18          	sub    $0x18,%rsp
    305d:	48 89 7d e8          	mov    %rdi,-0x18(%rbp)
    3061:	48 89 75 e0          	mov    %rsi,-0x20(%rbp)
    3065:	48 8b 45 e8          	mov    -0x18(%rbp),%rax
    3069:	48 8b 18             	mov    (%rax),%rbx
    306c:	48 8b 45 e0          	mov    -0x20(%rbp),%rax
    3070:	48 89 c7             	mov    %rax,%rdi
    3073:	e8 49 f5 ff ff       	call   25c1 <_ZSt7forwardIRKiEOT_RNSt16remove_referenceIS2_E4typeE>
    3078:	48 89 c6             	mov    %rax,%rsi
    307b:	48 89 df             	mov    %rbx,%rdi
    307e:	e8 3f 02 00 00       	call   32c2 <_ZNSt8_Rb_treeIiiSt9_IdentityIiESt4lessIiESaIiEE14_M_create_nodeIJRKiEEEPSt13_Rb_tree_nodeIiEDpOT_>
    3083:	48 8b 5d f8          	mov    -0x8(%rbp),%rbx
    3087:	c9                   	leave  
    3088:	c3                   	ret    

0000000000003089 <_ZSt7forwardISt17_Rb_tree_iteratorIiEEOT_RNSt16remove_referenceIS2_E4typeE>:
    3089:	f3 0f 1e fa          	endbr64 
    308d:	55                   	push   %rbp
    308e:	48 89 e5             	mov    %rsp,%rbp
    3091:	48 89 7d f8          	mov    %rdi,-0x8(%rbp)
    3095:	48 8b 45 f8          	mov    -0x8(%rbp),%rax
    3099:	5d                   	pop    %rbp
    309a:	c3                   	ret    
    309b:	90                   	nop

000000000000309c <_ZNK9__gnu_cxx16__aligned_membufIiE7_M_addrEv>:
    309c:	f3 0f 1e fa          	endbr64 
    30a0:	55                   	push   %rbp
    30a1:	48 89 e5             	mov    %rsp,%rbp
    30a4:	48 89 7d f8          	mov    %rdi,-0x8(%rbp)
    30a8:	48 8b 45 f8          	mov    -0x8(%rbp),%rax
    30ac:	5d                   	pop    %rbp
    30ad:	c3                   	ret    

00000000000030ae <_ZNSt6vectorIiSaIiEE11_S_max_sizeERKS0_>:
    30ae:	f3 0f 1e fa          	endbr64 
    30b2:	55                   	push   %rbp
    30b3:	48 89 e5             	mov    %rsp,%rbp
    30b6:	48 83 ec 30          	sub    $0x30,%rsp
    30ba:	48 89 7d d8          	mov    %rdi,-0x28(%rbp)
    30be:	64 48 8b 04 25 28 00 	mov    %fs:0x28,%rax
    30c5:	00 00 
    30c7:	48 89 45 f8          	mov    %rax,-0x8(%rbp)
    30cb:	31 c0                	xor    %eax,%eax
    30cd:	48 b8 ff ff ff ff ff 	movabs $0x1fffffffffffffff,%rax
    30d4:	ff ff 1f 
    30d7:	48 89 45 e8          	mov    %rax,-0x18(%rbp)
    30db:	48 8b 45 d8          	mov    -0x28(%rbp),%rax
    30df:	48 89 c7             	mov    %rax,%rdi
    30e2:	e8 27 02 00 00       	call   330e <_ZNSt16allocator_traitsISaIiEE8max_sizeERKS0_>
    30e7:	48 89 45 f0          	mov    %rax,-0x10(%rbp)
    30eb:	48 8d 55 f0          	lea    -0x10(%rbp),%rdx
    30ef:	48 8d 45 e8          	lea    -0x18(%rbp),%rax
    30f3:	48 89 d6             	mov    %rdx,%rsi
    30f6:	48 89 c7             	mov    %rax,%rdi
    30f9:	e8 ec e6 ff ff       	call   17ea <_ZSt3minImERKT_S2_S2_>
    30fe:	48 8b 00             	mov    (%rax),%rax
    3101:	48 8b 55 f8          	mov    -0x8(%rbp),%rdx
    3105:	64 48 2b 14 25 28 00 	sub    %fs:0x28,%rdx
    310c:	00 00 
    310e:	74 05                	je     3115 <_ZNSt6vectorIiSaIiEE11_S_max_sizeERKS0_+0x67>
    3110:	e8 0b e1 ff ff       	call   1220 <__stack_chk_fail@plt>
    3115:	c9                   	leave  
    3116:	c3                   	ret    
    3117:	90                   	nop

0000000000003118 <_ZNKSt12_Vector_baseIiSaIiEE19_M_get_Tp_allocatorEv>:
    3118:	f3 0f 1e fa          	endbr64 
    311c:	55                   	push   %rbp
    311d:	48 89 e5             	mov    %rsp,%rbp
    3120:	48 89 7d f8          	mov    %rdi,-0x8(%rbp)
    3124:	48 8b 45 f8          	mov    -0x8(%rbp),%rax
    3128:	5d                   	pop    %rbp
    3129:	c3                   	ret    

000000000000312a <_ZNK9__gnu_cxx13new_allocatorIiE11_M_max_sizeEv>:
    312a:	f3 0f 1e fa          	endbr64 
    312e:	55                   	push   %rbp
    312f:	48 89 e5             	mov    %rsp,%rbp
    3132:	48 89 7d f8          	mov    %rdi,-0x8(%rbp)
    3136:	48 b8 ff ff ff ff ff 	movabs $0x1fffffffffffffff,%rax
    313d:	ff ff 1f 
    3140:	5d                   	pop    %rbp
    3141:	c3                   	ret    

0000000000003142 <_ZN9__gnu_cxx13new_allocatorIiE8allocateEmPKv>:
    3142:	f3 0f 1e fa          	endbr64 
    3146:	55                   	push   %rbp
    3147:	48 89 e5             	mov    %rsp,%rbp
    314a:	48 83 ec 20          	sub    $0x20,%rsp
    314e:	48 89 7d f8          	mov    %rdi,-0x8(%rbp)
    3152:	48 89 75 f0          	mov    %rsi,-0x10(%rbp)
    3156:	48 89 55 e8          	mov    %rdx,-0x18(%rbp)
    315a:	48 8b 45 f8          	mov    -0x8(%rbp),%rax
    315e:	48 89 c7             	mov    %rax,%rdi
    3161:	e8 c4 ff ff ff       	call   312a <_ZNK9__gnu_cxx13new_allocatorIiE11_M_max_sizeEv>
    3166:	48 39 45 f0          	cmp    %rax,-0x10(%rbp)
    316a:	0f 97 c0             	seta   %al
    316d:	0f b6 c0             	movzbl %al,%eax
    3170:	48 85 c0             	test   %rax,%rax
    3173:	0f 95 c0             	setne  %al
    3176:	84 c0                	test   %al,%al
    3178:	74 1a                	je     3194 <_ZN9__gnu_cxx13new_allocatorIiE8allocateEmPKv+0x52>
    317a:	48 b8 ff ff ff ff ff 	movabs $0x3fffffffffffffff,%rax
    3181:	ff ff 3f 
    3184:	48 39 45 f0          	cmp    %rax,-0x10(%rbp)
    3188:	76 05                	jbe    318f <_ZN9__gnu_cxx13new_allocatorIiE8allocateEmPKv+0x4d>
    318a:	e8 31 e0 ff ff       	call   11c0 <_ZSt28__throw_bad_array_new_lengthv@plt>
    318f:	e8 dc df ff ff       	call   1170 <_ZSt17__throw_bad_allocv@plt>
    3194:	48 8b 45 f0          	mov    -0x10(%rbp),%rax
    3198:	48 c1 e0 02          	shl    $0x2,%rax
    319c:	48 89 c7             	mov    %rax,%rdi
    319f:	e8 4c e0 ff ff       	call   11f0 <_Znwm@plt>
    31a4:	90                   	nop
    31a5:	c9                   	leave  
    31a6:	c3                   	ret    

00000000000031a7 <_ZSt12__relocate_aIPiS0_SaIiEET0_T_S3_S2_RT1_>:
    31a7:	f3 0f 1e fa          	endbr64 
    31ab:	55                   	push   %rbp
    31ac:	48 89 e5             	mov    %rsp,%rbp
    31af:	41 54                	push   %r12
    31b1:	53                   	push   %rbx
    31b2:	48 83 ec 20          	sub    $0x20,%rsp
    31b6:	48 89 7d e8          	mov    %rdi,-0x18(%rbp)
    31ba:	48 89 75 e0          	mov    %rsi,-0x20(%rbp)
    31be:	48 89 55 d8          	mov    %rdx,-0x28(%rbp)
    31c2:	48 89 4d d0          	mov    %rcx,-0x30(%rbp)
    31c6:	48 8b 45 d8          	mov    -0x28(%rbp),%rax
    31ca:	48 89 c7             	mov    %rax,%rdi
    31cd:	e8 5a 01 00 00       	call   332c <_ZSt12__niter_baseIPiET_S1_>
    31d2:	49 89 c4             	mov    %rax,%r12
    31d5:	48 8b 45 e0          	mov    -0x20(%rbp),%rax
    31d9:	48 89 c7             	mov    %rax,%rdi
    31dc:	e8 4b 01 00 00       	call   332c <_ZSt12__niter_baseIPiET_S1_>
    31e1:	48 89 c3             	mov    %rax,%rbx
    31e4:	48 8b 45 e8          	mov    -0x18(%rbp),%rax
    31e8:	48 89 c7             	mov    %rax,%rdi
    31eb:	e8 3c 01 00 00       	call   332c <_ZSt12__niter_baseIPiET_S1_>
    31f0:	48 89 c7             	mov    %rax,%rdi
    31f3:	48 8b 45 d0          	mov    -0x30(%rbp),%rax
    31f7:	48 89 c1             	mov    %rax,%rcx
    31fa:	4c 89 e2             	mov    %r12,%rdx
    31fd:	48 89 de             	mov    %rbx,%rsi
    3200:	e8 39 01 00 00       	call   333e <_ZSt14__relocate_a_1IiiENSt9enable_ifIXsrSt24__is_bitwise_relocatableIT_vE5valueEPS2_E4typeES4_S4_S4_RSaIT0_E>
    3205:	48 83 c4 20          	add    $0x20,%rsp
    3209:	5b                   	pop    %rbx
    320a:	41 5c                	pop    %r12
    320c:	5d                   	pop    %rbp
    320d:	c3                   	ret    

000000000000320e <_ZNSt8_Rb_treeIiiSt9_IdentityIiESt4lessIiESaIiEE21_M_get_Node_allocatorEv>:
    320e:	f3 0f 1e fa          	endbr64 
    3212:	55                   	push   %rbp
    3213:	48 89 e5             	mov    %rsp,%rbp
    3216:	48 89 7d f8          	mov    %rdi,-0x8(%rbp)
    321a:	48 8b 45 f8          	mov    -0x8(%rbp),%rax
    321e:	5d                   	pop    %rbp
    321f:	c3                   	ret    

0000000000003220 <_ZNSt13_Rb_tree_nodeIiE9_M_valptrEv>:
    3220:	f3 0f 1e fa          	endbr64 
    3224:	55                   	push   %rbp
    3225:	48 89 e5             	mov    %rsp,%rbp
    3228:	48 83 ec 10          	sub    $0x10,%rsp
    322c:	48 89 7d f8          	mov    %rdi,-0x8(%rbp)
    3230:	48 8b 45 f8          	mov    -0x8(%rbp),%rax
    3234:	48 83 c0 20          	add    $0x20,%rax
    3238:	48 89 c7             	mov    %rax,%rdi
    323b:	e8 66 01 00 00       	call   33a6 <_ZN9__gnu_cxx16__aligned_membufIiE6_M_ptrEv>
    3240:	c9                   	leave  
    3241:	c3                   	ret    

0000000000003242 <_ZNSt16allocator_traitsISaISt13_Rb_tree_nodeIiEEE7destroyIiEEvRS2_PT_>:
    3242:	f3 0f 1e fa          	endbr64 
    3246:	55                   	push   %rbp
    3247:	48 89 e5             	mov    %rsp,%rbp
    324a:	48 83 ec 10          	sub    $0x10,%rsp
    324e:	48 89 7d f8          	mov    %rdi,-0x8(%rbp)
    3252:	48 89 75 f0          	mov    %rsi,-0x10(%rbp)
    3256:	48 8b 55 f0          	mov    -0x10(%rbp),%rdx
    325a:	48 8b 45 f8          	mov    -0x8(%rbp),%rax
    325e:	48 89 d6             	mov    %rdx,%rsi
    3261:	48 89 c7             	mov    %rax,%rdi
    3264:	e8 5b 01 00 00       	call   33c4 <_ZN9__gnu_cxx13new_allocatorISt13_Rb_tree_nodeIiEE7destroyIiEEvPT_>
    3269:	90                   	nop
    326a:	c9                   	leave  
    326b:	c3                   	ret    

000000000000326c <_ZNSt16allocator_traitsISaISt13_Rb_tree_nodeIiEEE10deallocateERS2_PS1_m>:
    326c:	f3 0f 1e fa          	endbr64 
    3270:	55                   	push   %rbp
    3271:	48 89 e5             	mov    %rsp,%rbp
    3274:	48 83 ec 20          	sub    $0x20,%rsp
    3278:	48 89 7d f8          	mov    %rdi,-0x8(%rbp)
    327c:	48 89 75 f0          	mov    %rsi,-0x10(%rbp)
    3280:	48 89 55 e8          	mov    %rdx,-0x18(%rbp)
    3284:	48 8b 55 e8          	mov    -0x18(%rbp),%rdx
    3288:	48 8b 4d f0          	mov    -0x10(%rbp),%rcx
    328c:	48 8b 45 f8          	mov    -0x8(%rbp),%rax
    3290:	48 89 ce             	mov    %rcx,%rsi
    3293:	48 89 c7             	mov    %rax,%rdi
    3296:	e8 3d 01 00 00       	call   33d8 <_ZN9__gnu_cxx13new_allocatorISt13_Rb_tree_nodeIiEE10deallocateEPS2_m>
    329b:	90                   	nop
    329c:	c9                   	leave  
    329d:	c3                   	ret    

000000000000329e <_ZSt7forwardIRPSt13_Rb_tree_nodeIiEEOT_RNSt16remove_referenceIS4_E4typeE>:
    329e:	f3 0f 1e fa          	endbr64 
    32a2:	55                   	push   %rbp
    32a3:	48 89 e5             	mov    %rsp,%rbp
    32a6:	48 89 7d f8          	mov    %rdi,-0x8(%rbp)
    32aa:	48 8b 45 f8          	mov    -0x8(%rbp),%rax
    32ae:	5d                   	pop    %rbp
    32af:	c3                   	ret    

00000000000032b0 <_ZSt7forwardIRPSt18_Rb_tree_node_baseEOT_RNSt16remove_referenceIS3_E4typeE>:
    32b0:	f3 0f 1e fa          	endbr64 
    32b4:	55                   	push   %rbp
    32b5:	48 89 e5             	mov    %rsp,%rbp
    32b8:	48 89 7d f8          	mov    %rdi,-0x8(%rbp)
    32bc:	48 8b 45 f8          	mov    -0x8(%rbp),%rax
    32c0:	5d                   	pop    %rbp
    32c1:	c3                   	ret    

00000000000032c2 <_ZNSt8_Rb_treeIiiSt9_IdentityIiESt4lessIiESaIiEE14_M_create_nodeIJRKiEEEPSt13_Rb_tree_nodeIiEDpOT_>:
    32c2:	f3 0f 1e fa          	endbr64 
    32c6:	55                   	push   %rbp
    32c7:	48 89 e5             	mov    %rsp,%rbp
    32ca:	48 83 ec 20          	sub    $0x20,%rsp
    32ce:	48 89 7d e8          	mov    %rdi,-0x18(%rbp)
    32d2:	48 89 75 e0          	mov    %rsi,-0x20(%rbp)
    32d6:	48 8b 45 e8          	mov    -0x18(%rbp),%rax
    32da:	48 89 c7             	mov    %rax,%rdi
    32dd:	e8 34 01 00 00       	call   3416 <_ZNSt8_Rb_treeIiiSt9_IdentityIiESt4lessIiESaIiEE11_M_get_nodeEv>
    32e2:	48 89 45 f8          	mov    %rax,-0x8(%rbp)
    32e6:	48 8b 45 e0          	mov    -0x20(%rbp),%rax
    32ea:	48 89 c7             	mov    %rax,%rdi
    32ed:	e8 cf f2 ff ff       	call   25c1 <_ZSt7forwardIRKiEOT_RNSt16remove_referenceIS2_E4typeE>
    32f2:	48 89 c2             	mov    %rax,%rdx
    32f5:	48 8b 4d f8          	mov    -0x8(%rbp),%rcx
    32f9:	48 8b 45 e8          	mov    -0x18(%rbp),%rax
    32fd:	48 89 ce             	mov    %rcx,%rsi
    3300:	48 89 c7             	mov    %rax,%rdi
    3303:	e8 3a 01 00 00       	call   3442 <_ZNSt8_Rb_treeIiiSt9_IdentityIiESt4lessIiESaIiEE17_M_construct_nodeIJRKiEEEvPSt13_Rb_tree_nodeIiEDpOT_>
    3308:	48 8b 45 f8          	mov    -0x8(%rbp),%rax
    330c:	c9                   	leave  
    330d:	c3                   	ret    

000000000000330e <_ZNSt16allocator_traitsISaIiEE8max_sizeERKS0_>:
    330e:	f3 0f 1e fa          	endbr64 
    3312:	55                   	push   %rbp
    3313:	48 89 e5             	mov    %rsp,%rbp
    3316:	48 83 ec 10          	sub    $0x10,%rsp
    331a:	48 89 7d f8          	mov    %rdi,-0x8(%rbp)
    331e:	48 8b 45 f8          	mov    -0x8(%rbp),%rax
    3322:	48 89 c7             	mov    %rax,%rdi
    3325:	e8 86 01 00 00       	call   34b0 <_ZNK9__gnu_cxx13new_allocatorIiE8max_sizeEv>
    332a:	c9                   	leave  
    332b:	c3                   	ret    

000000000000332c <_ZSt12__niter_baseIPiET_S1_>:
    332c:	f3 0f 1e fa          	endbr64 
    3330:	55                   	push   %rbp
    3331:	48 89 e5             	mov    %rsp,%rbp
    3334:	48 89 7d f8          	mov    %rdi,-0x8(%rbp)
    3338:	48 8b 45 f8          	mov    -0x8(%rbp),%rax
    333c:	5d                   	pop    %rbp
    333d:	c3                   	ret    

000000000000333e <_ZSt14__relocate_a_1IiiENSt9enable_ifIXsrSt24__is_bitwise_relocatableIT_vE5valueEPS2_E4typeES4_S4_S4_RSaIT0_E>:
    333e:	f3 0f 1e fa          	endbr64 
    3342:	55                   	push   %rbp
    3343:	48 89 e5             	mov    %rsp,%rbp
    3346:	48 83 ec 30          	sub    $0x30,%rsp
    334a:	48 89 7d e8          	mov    %rdi,-0x18(%rbp)
    334e:	48 89 75 e0          	mov    %rsi,-0x20(%rbp)
    3352:	48 89 55 d8          	mov    %rdx,-0x28(%rbp)
    3356:	48 89 4d d0          	mov    %rcx,-0x30(%rbp)
    335a:	48 8b 45 e0          	mov    -0x20(%rbp),%rax
    335e:	48 2b 45 e8          	sub    -0x18(%rbp),%rax
    3362:	48 c1 f8 02          	sar    $0x2,%rax
    3366:	48 89 45 f8          	mov    %rax,-0x8(%rbp)
    336a:	48 83 7d f8 00       	cmpq   $0x0,-0x8(%rbp)
    336f:	7e 1f                	jle    3390 <_ZSt14__relocate_a_1IiiENSt9enable_ifIXsrSt24__is_bitwise_relocatableIT_vE5valueEPS2_E4typeES4_S4_S4_RSaIT0_E+0x52>
    3371:	48 8b 45 f8          	mov    -0x8(%rbp),%rax
    3375:	48 8d 14 85 00 00 00 	lea    0x0(,%rax,4),%rdx
    337c:	00 
    337d:	48 8b 4d e8          	mov    -0x18(%rbp),%rcx
    3381:	48 8b 45 d8          	mov    -0x28(%rbp),%rax
    3385:	48 89 ce             	mov    %rcx,%rsi
    3388:	48 89 c7             	mov    %rax,%rdi
    338b:	e8 c0 de ff ff       	call   1250 <memmove@plt>
    3390:	48 8b 45 f8          	mov    -0x8(%rbp),%rax
    3394:	48 8d 14 85 00 00 00 	lea    0x0(,%rax,4),%rdx
    339b:	00 
    339c:	48 8b 45 d8          	mov    -0x28(%rbp),%rax
    33a0:	48 01 d0             	add    %rdx,%rax
    33a3:	c9                   	leave  
    33a4:	c3                   	ret    
    33a5:	90                   	nop

00000000000033a6 <_ZN9__gnu_cxx16__aligned_membufIiE6_M_ptrEv>:
    33a6:	f3 0f 1e fa          	endbr64 
    33aa:	55                   	push   %rbp
    33ab:	48 89 e5             	mov    %rsp,%rbp
    33ae:	48 83 ec 10          	sub    $0x10,%rsp
    33b2:	48 89 7d f8          	mov    %rdi,-0x8(%rbp)
    33b6:	48 8b 45 f8          	mov    -0x8(%rbp),%rax
    33ba:	48 89 c7             	mov    %rax,%rdi
    33bd:	e8 0c 01 00 00       	call   34ce <_ZN9__gnu_cxx16__aligned_membufIiE7_M_addrEv>
    33c2:	c9                   	leave  
    33c3:	c3                   	ret    

00000000000033c4 <_ZN9__gnu_cxx13new_allocatorISt13_Rb_tree_nodeIiEE7destroyIiEEvPT_>:
    33c4:	f3 0f 1e fa          	endbr64 
    33c8:	55                   	push   %rbp
    33c9:	48 89 e5             	mov    %rsp,%rbp
    33cc:	48 89 7d f8          	mov    %rdi,-0x8(%rbp)
    33d0:	48 89 75 f0          	mov    %rsi,-0x10(%rbp)
    33d4:	90                   	nop
    33d5:	5d                   	pop    %rbp
    33d6:	c3                   	ret    
    33d7:	90                   	nop

00000000000033d8 <_ZN9__gnu_cxx13new_allocatorISt13_Rb_tree_nodeIiEE10deallocateEPS2_m>:
    33d8:	f3 0f 1e fa          	endbr64 
    33dc:	55                   	push   %rbp
    33dd:	48 89 e5             	mov    %rsp,%rbp
    33e0:	48 83 ec 20          	sub    $0x20,%rsp
    33e4:	48 89 7d f8          	mov    %rdi,-0x8(%rbp)
    33e8:	48 89 75 f0          	mov    %rsi,-0x10(%rbp)
    33ec:	48 89 55 e8          	mov    %rdx,-0x18(%rbp)
    33f0:	48 8b 55 e8          	mov    -0x18(%rbp),%rdx
    33f4:	48 89 d0             	mov    %rdx,%rax
    33f7:	48 c1 e0 02          	shl    $0x2,%rax
    33fb:	48 01 d0             	add    %rdx,%rax
    33fe:	48 c1 e0 03          	shl    $0x3,%rax
    3402:	48 89 c2             	mov    %rax,%rdx
    3405:	48 8b 45 f0          	mov    -0x10(%rbp),%rax
    3409:	48 89 d6             	mov    %rdx,%rsi
    340c:	48 89 c7             	mov    %rax,%rdi
    340f:	e8 ec dd ff ff       	call   1200 <_ZdlPvm@plt>
    3414:	c9                   	leave  
    3415:	c3                   	ret    

0000000000003416 <_ZNSt8_Rb_treeIiiSt9_IdentityIiESt4lessIiESaIiEE11_M_get_nodeEv>:
    3416:	f3 0f 1e fa          	endbr64 
    341a:	55                   	push   %rbp
    341b:	48 89 e5             	mov    %rsp,%rbp
    341e:	48 83 ec 10          	sub    $0x10,%rsp
    3422:	48 89 7d f8          	mov    %rdi,-0x8(%rbp)
    3426:	48 8b 45 f8          	mov    -0x8(%rbp),%rax
    342a:	48 89 c7             	mov    %rax,%rdi
    342d:	e8 dc fd ff ff       	call   320e <_ZNSt8_Rb_treeIiiSt9_IdentityIiESt4lessIiESaIiEE21_M_get_Node_allocatorEv>
    3432:	be 01 00 00 00       	mov    $0x1,%esi
    3437:	48 89 c7             	mov    %rax,%rdi
    343a:	e8 a1 00 00 00       	call   34e0 <_ZNSt16allocator_traitsISaISt13_Rb_tree_nodeIiEEE8allocateERS2_m>
    343f:	c9                   	leave  
    3440:	c3                   	ret    
    3441:	90                   	nop

0000000000003442 <_ZNSt8_Rb_treeIiiSt9_IdentityIiESt4lessIiESaIiEE17_M_construct_nodeIJRKiEEEvPSt13_Rb_tree_nodeIiEDpOT_>:
    3442:	f3 0f 1e fa          	endbr64 
    3446:	55                   	push   %rbp
    3447:	48 89 e5             	mov    %rsp,%rbp
    344a:	41 54                	push   %r12
    344c:	53                   	push   %rbx
    344d:	48 83 ec 20          	sub    $0x20,%rsp
    3451:	48 89 7d e8          	mov    %rdi,-0x18(%rbp)
    3455:	48 89 75 e0          	mov    %rsi,-0x20(%rbp)
    3459:	48 89 55 d8          	mov    %rdx,-0x28(%rbp)
    345d:	48 8b 45 e0          	mov    -0x20(%rbp),%rax
    3461:	48 89 c6             	mov    %rax,%rsi
    3464:	bf 28 00 00 00       	mov    $0x28,%edi
    3469:	e8 66 e3 ff ff       	call   17d4 <_ZnwmPv>
    346e:	48 8b 45 d8          	mov    -0x28(%rbp),%rax
    3472:	48 89 c7             	mov    %rax,%rdi
    3475:	e8 47 f1 ff ff       	call   25c1 <_ZSt7forwardIRKiEOT_RNSt16remove_referenceIS2_E4typeE>
    347a:	49 89 c4             	mov    %rax,%r12
    347d:	48 8b 45 e0          	mov    -0x20(%rbp),%rax
    3481:	48 89 c7             	mov    %rax,%rdi
    3484:	e8 97 fd ff ff       	call   3220 <_ZNSt13_Rb_tree_nodeIiE9_M_valptrEv>
    3489:	48 89 c3             	mov    %rax,%rbx
    348c:	48 8b 45 e8          	mov    -0x18(%rbp),%rax
    3490:	48 89 c7             	mov    %rax,%rdi
    3493:	e8 76 fd ff ff       	call   320e <_ZNSt8_Rb_treeIiiSt9_IdentityIiESt4lessIiESaIiEE21_M_get_Node_allocatorEv>
    3498:	4c 89 e2             	mov    %r12,%rdx
    349b:	48 89 de             	mov    %rbx,%rsi
    349e:	48 89 c7             	mov    %rax,%rdi
    34a1:	e8 68 00 00 00       	call   350e <_ZNSt16allocator_traitsISaISt13_Rb_tree_nodeIiEEE9constructIiJRKiEEEvRS2_PT_DpOT0_>
    34a6:	90                   	nop
    34a7:	48 83 c4 20          	add    $0x20,%rsp
    34ab:	5b                   	pop    %rbx
    34ac:	41 5c                	pop    %r12
    34ae:	5d                   	pop    %rbp
    34af:	c3                   	ret    

00000000000034b0 <_ZNK9__gnu_cxx13new_allocatorIiE8max_sizeEv>:
    34b0:	f3 0f 1e fa          	endbr64 
    34b4:	55                   	push   %rbp
    34b5:	48 89 e5             	mov    %rsp,%rbp
    34b8:	48 83 ec 10          	sub    $0x10,%rsp
    34bc:	48 89 7d f8          	mov    %rdi,-0x8(%rbp)
    34c0:	48 8b 45 f8          	mov    -0x8(%rbp),%rax
    34c4:	48 89 c7             	mov    %rax,%rdi
    34c7:	e8 5e fc ff ff       	call   312a <_ZNK9__gnu_cxx13new_allocatorIiE11_M_max_sizeEv>
    34cc:	c9                   	leave  
    34cd:	c3                   	ret    

00000000000034ce <_ZN9__gnu_cxx16__aligned_membufIiE7_M_addrEv>:
    34ce:	f3 0f 1e fa          	endbr64 
    34d2:	55                   	push   %rbp
    34d3:	48 89 e5             	mov    %rsp,%rbp
    34d6:	48 89 7d f8          	mov    %rdi,-0x8(%rbp)
    34da:	48 8b 45 f8          	mov    -0x8(%rbp),%rax
    34de:	5d                   	pop    %rbp
    34df:	c3                   	ret    

00000000000034e0 <_ZNSt16allocator_traitsISaISt13_Rb_tree_nodeIiEEE8allocateERS2_m>:
    34e0:	f3 0f 1e fa          	endbr64 
    34e4:	55                   	push   %rbp
    34e5:	48 89 e5             	mov    %rsp,%rbp
    34e8:	48 83 ec 10          	sub    $0x10,%rsp
    34ec:	48 89 7d f8          	mov    %rdi,-0x8(%rbp)
    34f0:	48 89 75 f0          	mov    %rsi,-0x10(%rbp)
    34f4:	48 8b 4d f0          	mov    -0x10(%rbp),%rcx
    34f8:	48 8b 45 f8          	mov    -0x8(%rbp),%rax
    34fc:	ba 00 00 00 00       	mov    $0x0,%edx
    3501:	48 89 ce             	mov    %rcx,%rsi
    3504:	48 89 c7             	mov    %rax,%rdi
    3507:	e8 58 00 00 00       	call   3564 <_ZN9__gnu_cxx13new_allocatorISt13_Rb_tree_nodeIiEE8allocateEmPKv>
    350c:	c9                   	leave  
    350d:	c3                   	ret    

000000000000350e <_ZNSt16allocator_traitsISaISt13_Rb_tree_nodeIiEEE9constructIiJRKiEEEvRS2_PT_DpOT0_>:
    350e:	f3 0f 1e fa          	endbr64 
    3512:	55                   	push   %rbp
    3513:	48 89 e5             	mov    %rsp,%rbp
    3516:	48 83 ec 20          	sub    $0x20,%rsp
    351a:	48 89 7d f8          	mov    %rdi,-0x8(%rbp)
    351e:	48 89 75 f0          	mov    %rsi,-0x10(%rbp)
    3522:	48 89 55 e8          	mov    %rdx,-0x18(%rbp)
    3526:	48 8b 45 e8          	mov    -0x18(%rbp),%rax
    352a:	48 89 c7             	mov    %rax,%rdi
    352d:	e8 8f f0 ff ff       	call   25c1 <_ZSt7forwardIRKiEOT_RNSt16remove_referenceIS2_E4typeE>
    3532:	48 89 c2             	mov    %rax,%rdx
    3535:	48 8b 4d f0          	mov    -0x10(%rbp),%rcx
    3539:	48 8b 45 f8          	mov    -0x8(%rbp),%rax
    353d:	48 89 ce             	mov    %rcx,%rsi
    3540:	48 89 c7             	mov    %rax,%rdi
    3543:	e8 8c 00 00 00       	call   35d4 <_ZN9__gnu_cxx13new_allocatorISt13_Rb_tree_nodeIiEE9constructIiJRKiEEEvPT_DpOT0_>
    3548:	90                   	nop
    3549:	c9                   	leave  
    354a:	c3                   	ret    
    354b:	90                   	nop

000000000000354c <_ZNK9__gnu_cxx13new_allocatorISt13_Rb_tree_nodeIiEE11_M_max_sizeEv>:
    354c:	f3 0f 1e fa          	endbr64 
    3550:	55                   	push   %rbp
    3551:	48 89 e5             	mov    %rsp,%rbp
    3554:	48 89 7d f8          	mov    %rdi,-0x8(%rbp)
    3558:	48 b8 33 33 33 33 33 	movabs $0x333333333333333,%rax
    355f:	33 33 03 
    3562:	5d                   	pop    %rbp
    3563:	c3                   	ret    

0000000000003564 <_ZN9__gnu_cxx13new_allocatorISt13_Rb_tree_nodeIiEE8allocateEmPKv>:
    3564:	f3 0f 1e fa          	endbr64 
    3568:	55                   	push   %rbp
    3569:	48 89 e5             	mov    %rsp,%rbp
    356c:	48 83 ec 20          	sub    $0x20,%rsp
    3570:	48 89 7d f8          	mov    %rdi,-0x8(%rbp)
    3574:	48 89 75 f0          	mov    %rsi,-0x10(%rbp)
    3578:	48 89 55 e8          	mov    %rdx,-0x18(%rbp)
    357c:	48 8b 45 f8          	mov    -0x8(%rbp),%rax
    3580:	48 89 c7             	mov    %rax,%rdi
    3583:	e8 c4 ff ff ff       	call   354c <_ZNK9__gnu_cxx13new_allocatorISt13_Rb_tree_nodeIiEE11_M_max_sizeEv>
    3588:	48 39 45 f0          	cmp    %rax,-0x10(%rbp)
    358c:	0f 97 c0             	seta   %al
    358f:	0f b6 c0             	movzbl %al,%eax
    3592:	48 85 c0             	test   %rax,%rax
    3595:	0f 95 c0             	setne  %al
    3598:	84 c0                	test   %al,%al
    359a:	74 1a                	je     35b6 <_ZN9__gnu_cxx13new_allocatorISt13_Rb_tree_nodeIiEE8allocateEmPKv+0x52>
    359c:	48 b8 66 66 66 66 66 	movabs $0x666666666666666,%rax
    35a3:	66 66 06 
    35a6:	48 39 45 f0          	cmp    %rax,-0x10(%rbp)
    35aa:	76 05                	jbe    35b1 <_ZN9__gnu_cxx13new_allocatorISt13_Rb_tree_nodeIiEE8allocateEmPKv+0x4d>
    35ac:	e8 0f dc ff ff       	call   11c0 <_ZSt28__throw_bad_array_new_lengthv@plt>
    35b1:	e8 ba db ff ff       	call   1170 <_ZSt17__throw_bad_allocv@plt>
    35b6:	48 8b 55 f0          	mov    -0x10(%rbp),%rdx
    35ba:	48 89 d0             	mov    %rdx,%rax
    35bd:	48 c1 e0 02          	shl    $0x2,%rax
    35c1:	48 01 d0             	add    %rdx,%rax
    35c4:	48 c1 e0 03          	shl    $0x3,%rax
    35c8:	48 89 c7             	mov    %rax,%rdi
    35cb:	e8 20 dc ff ff       	call   11f0 <_Znwm@plt>
    35d0:	90                   	nop
    35d1:	c9                   	leave  
    35d2:	c3                   	ret    
    35d3:	90                   	nop

00000000000035d4 <_ZN9__gnu_cxx13new_allocatorISt13_Rb_tree_nodeIiEE9constructIiJRKiEEEvPT_DpOT0_>:
    35d4:	f3 0f 1e fa          	endbr64 
    35d8:	55                   	push   %rbp
    35d9:	48 89 e5             	mov    %rsp,%rbp
    35dc:	53                   	push   %rbx
    35dd:	48 83 ec 28          	sub    $0x28,%rsp
    35e1:	48 89 7d e8          	mov    %rdi,-0x18(%rbp)
    35e5:	48 89 75 e0          	mov    %rsi,-0x20(%rbp)
    35e9:	48 89 55 d8          	mov    %rdx,-0x28(%rbp)
    35ed:	48 8b 45 d8          	mov    -0x28(%rbp),%rax
    35f1:	48 89 c7             	mov    %rax,%rdi
    35f4:	e8 c8 ef ff ff       	call   25c1 <_ZSt7forwardIRKiEOT_RNSt16remove_referenceIS2_E4typeE>
    35f9:	8b 18                	mov    (%rax),%ebx
    35fb:	48 8b 45 e0          	mov    -0x20(%rbp),%rax
    35ff:	48 89 c6             	mov    %rax,%rsi
    3602:	bf 04 00 00 00       	mov    $0x4,%edi
    3607:	e8 c8 e1 ff ff       	call   17d4 <_ZnwmPv>
    360c:	89 18                	mov    %ebx,(%rax)
    360e:	90                   	nop
    360f:	48 8b 5d f8          	mov    -0x8(%rbp),%rbx
    3613:	c9                   	leave  
    3614:	c3                   	ret    

Disassembly of section .fini:

0000000000003618 <_fini>:
    3618:	f3 0f 1e fa          	endbr64 
    361c:	48 83 ec 08          	sub    $0x8,%rsp
    3620:	48 83 c4 08          	add    $0x8,%rsp
    3624:	c3                   	ret    
